Microchip Technology Inc, vv3_31 (A) t

Tool Name:
  c:\program files (x86)\microchip\mplabc30\v3.30\bin\bin\..\bin/pic30-elf-ld.exe

Command:
  -p24FJ256DA210 \
  -o \
  dist/default/production/OMB_CLS_build13.X.production.elf \
  -Lc:/program files (x86)/microchip/mplabc30/v3.30/bin/bin/.. \
  -Lc:/program files (x86)/microchip/mplabc30/v3.30/bin/bin/../../lib \
  -Lc:/program files (x86)/microchip/mplabc30/v3.30/bin/bin/../../lib/PIC24E \
  -Lc:/program files (x86)/microchip/mplabc30/v3.30/bin/bin/../../support/PIC24E/gld \
  -Lc:/program files (x86)/microchip/mplabc30/v3.30/bin/bin/../../lib/PIC24F \
  -Lc:/program files (x86)/microchip/mplabc30/v3.30/bin/bin/../../support/PIC24F/gld \
  -Lc:/program files (x86)/microchip/mplabc30/v3.30/bin/bin/../../lib/PIC24H \
  -Lc:/program files (x86)/microchip/mplabc30/v3.30/bin/bin/../../support/PIC24H/gld \
  -Lc:/program files (x86)/microchip/mplabc30/v3.30/bin/bin/../../lib/dsPIC30F \
  -Lc:/program files (x86)/microchip/mplabc30/v3.30/bin/bin/../../support/dsPIC30F/gld \
  -Lc:/program files (x86)/microchip/mplabc30/v3.30/bin/bin/../../lib/dsPIC33E \
  -Lc:/program files (x86)/microchip/mplabc30/v3.30/bin/bin/../../support/dsPIC33E/gld \
  -Lc:/program files (x86)/microchip/mplabc30/v3.30/bin/bin/../../lib/dsPIC33F \
  -Lc:/program files (x86)/microchip/mplabc30/v3.30/bin/bin/../../support/dsPIC33F/gld \
  build/default/production/_ext/1472/RH_Control.o \
  build/default/production/_ext/1472/TempControl.o \
  build/default/production/_ext/1472/AC_Hz.o \
  build/default/production/_ext/1472/AlarmContactRelay.o \
  build/default/production/_ext/1472/CO2_Control.o \
  build/default/production/_ext/1472/EventRTC.o \
  build/default/production/_ext/1472/EventScheduler.o \
  build/default/production/_ext/1472/EventTCPIP.o \
  build/default/production/_ext/1472/FailSafeRelay.o \
  build/default/production/_ext/1472/O2_Control.o \
  build/default/production/_ext/1472/OMB_Mode.o \
  build/default/production/_ext/1472/RTC_S35390.o \
  build/default/production/_ext/1472/OMB_Output.o \
  build/default/production/_ext/1472/EventBuzzer.o \
  build/default/production/_ext/1472/OMBLTC2439_Inputs.o \
  build/default/production/_ext/1472/OMB_UTI_Comm.o \
  build/default/production/_ext/1472/O2_RS485.o \
  build/default/production/_ext/1472/OMB_DigitalInputs.o \
  build/default/production/_ext/1472/USB.o \
  build/default/production/_ext/1472/Event_UV.o \
  build/default/production/_ext/1472/EEPROM_24AA1025.o \
  build/default/production/_ext/1472/CO2_RS485.o \
  build/default/production/_ext/1472/OMB_AnalogOutput.o \
  build/default/production/_ext/1472/p24FJ256DA210_UART2.o \
  build/default/production/_ext/1472/p24FJ256DA210_UART1.o \
  build/default/production/_ext/1472/p24FJ256DA210_Timer1.o \
  build/default/production/_ext/1472/p24FJ256DA210_I2C3.o \
  build/default/production/_ext/1472/p24FJ256DA210_SPI1.o \
  build/default/production/_ext/1472/LTC2439.o \
  build/default/production/_ext/1472/p24FJ256DA210_I2C1.o \
  build/default/production/_ext/1472/p24FJ256DA210_ICN.o \
  build/default/production/_ext/1472/p24FJ256DA210_OCx.o \
  build/default/production/_ext/1472/p24FJ256DA210_Timer3.o \
  build/default/production/_ext/1472/Flash.o \
  build/default/production/_ext/867694782/ENC28J60.o \
  build/default/production/_ext/867694782/Delay.o \
  build/default/production/_ext/867694782/StackTsk.o \
  build/default/production/_ext/867694782/Helpers.o \
  build/default/production/_ext/867694782/Announce.o \
  build/default/production/_ext/867694782/UDP.o \
  build/default/production/_ext/867694782/ARP.o \
  build/default/production/_ext/867694782/DHCP.o \
  build/default/production/_ext/867694782/Tick.o \
  build/default/production/_ext/867694782/IP.o \
  build/default/production/_ext/867694782/ICMP.o \
  build/default/production/_ext/867694782/TCP.o \
  build/default/production/_ext/1472/main.o \
  build/default/production/_ext/1472/General.o \
  --defsym=__MPLAB_BUILD=1 \
  -L.. \
  -L. \
  -Map=dist/default/production/OMB_CLS_build13.X.production.map \
  --report-mem \
  -Tp24FJ256DA210.gld.00 \
  -start-group \
  --library=pic30-elf \
  --library=m-elf \
  --library=c-elf \
  -end-group \

Archive member included because of file (symbol)

c:/program files (x86)/microchip/mplabc30/v3.30/bin/bin/../../lib\libpic30-elf.a(crt0_extended.o)
                              (__resetPRI)
c:/program files (x86)/microchip/mplabc30/v3.30/bin/bin/../../lib\libpic30-elf.a(data_init_extended.o)
                              c:/program files (x86)/microchip/mplabc30/v3.30/bin/bin/../../lib\libpic30-elf.a(crt0_extended.o) (__data_init_extended)
c:/program files (x86)/microchip/mplabc30/v3.30/bin/bin/../../lib\libm-elf.a(addsf3.eo)
                              build/default/production/_ext/1472/TempControl.o (___subsf3)
c:/program files (x86)/microchip/mplabc30/v3.30/bin/bin/../../lib\libm-elf.a(divsf3.eo)
                              build/default/production/_ext/1472/RH_Control.o (___divsf3)
c:/program files (x86)/microchip/mplabc30/v3.30/bin/bin/../../lib\libm-elf.a(divsi3.eo)
                              build/default/production/_ext/1472/CO2_RS485.o (___divsi3)
c:/program files (x86)/microchip/mplabc30/v3.30/bin/bin/../../lib\libm-elf.a(feqltle.eo)
                              build/default/production/_ext/1472/RH_Control.o (___ltsf2)
c:/program files (x86)/microchip/mplabc30/v3.30/bin/bin/../../lib\libm-elf.a(fgtge.eo)
                              build/default/production/_ext/1472/RH_Control.o (___gtsf2)
c:/program files (x86)/microchip/mplabc30/v3.30/bin/bin/../../lib\libm-elf.a(fixsfsi.eo)
                              build/default/production/_ext/1472/RH_Control.o (_(float, int, long long, short, float, short, int))
c:/program files (x86)/microchip/mplabc30/v3.30/bin/bin/../../lib\libm-elf.a(fixunssfsi.eo)
                              build/default/production/_ext/1472/RH_Control.o (___fixunssfsi)
c:/program files (x86)/microchip/mplabc30/v3.30/bin/bin/../../lib\libm-elf.a(floatsisf.eo)
                              build/default/production/_ext/1472/RH_Control.o (___floatsisf)
c:/program files (x86)/microchip/mplabc30/v3.30/bin/bin/../../lib\libm-elf.a(fpack.eo)
                              c:/program files (x86)/microchip/mplabc30/v3.30/bin/bin/../../lib\libm-elf.a(addsf3.eo) (__fpack)
c:/program files (x86)/microchip/mplabc30/v3.30/bin/bin/../../lib\libm-elf.a(funpack.eo)
                              c:/program files (x86)/microchip/mplabc30/v3.30/bin/bin/../../lib\libm-elf.a(fixsfsi.eo) (__funpack)
c:/program files (x86)/microchip/mplabc30/v3.30/bin/bin/../../lib\libm-elf.a(funpack2.eo)
                              c:/program files (x86)/microchip/mplabc30/v3.30/bin/bin/../../lib\libm-elf.a(addsf3.eo) (__funpack2)
c:/program files (x86)/microchip/mplabc30/v3.30/bin/bin/../../lib\libm-elf.a(futil.eo)
                              c:/program files (x86)/microchip/mplabc30/v3.30/bin/bin/../../lib\libm-elf.a(addsf3.eo) (__fPropagateNaN)
c:/program files (x86)/microchip/mplabc30/v3.30/bin/bin/../../lib\libm-elf.a(modsi3.eo)
                              build/default/production/_ext/1472/General.o (___modsi3)
c:/program files (x86)/microchip/mplabc30/v3.30/bin/bin/../../lib\libm-elf.a(mulsf3.eo)
                              build/default/production/_ext/1472/RH_Control.o (___mulsf3)
c:/program files (x86)/microchip/mplabc30/v3.30/bin/bin/../../lib\libm-elf.a(udivsi3.eo)
                              c:/program files (x86)/microchip/mplabc30/v3.30/bin/bin/../../lib\libm-elf.a(divsi3.eo) (___udivsi3)
c:/program files (x86)/microchip/mplabc30/v3.30/bin/bin/../../lib\libm-elf.a(umodsi3.eo)
                              c:/program files (x86)/microchip/mplabc30/v3.30/bin/bin/../../lib\libm-elf.a(modsi3.eo) (___umodsi3)
c:/program files (x86)/microchip/mplabc30/v3.30/bin/bin/../../lib\libm-elf.a(divmoddi3.eo)
                              build/default/production/_ext/867694782/Tick.o (___udivdi3)
c:/program files (x86)/microchip/mplabc30/v3.30/bin/bin/../../lib\libm-elf.a(fcompare.eo)
                              c:/program files (x86)/microchip/mplabc30/v3.30/bin/bin/../../lib\libm-elf.a(feqltle.eo) (__fcompare)
c:/program files (x86)/microchip/mplabc30/v3.30/bin/bin/../../lib\libc-elf.a(memcpy.XXeo)
                              build/default/production/_ext/867694782/TCP.o (_memcpy)
c:/program files (x86)/microchip/mplabc30/v3.30/bin/bin/../../lib\libc-elf.a(memset.XXeo)
                              build/default/production/_ext/1472/EventTCPIP.o (_memset)
c:/program files (x86)/microchip/mplabc30/v3.30/bin/bin/../../lib\libc-elf.a(strlen.XXeo)
                              build/default/production/_ext/1472/EventTCPIP.o (_strlen)
c:/program files (x86)/microchip/mplabc30/v3.30/bin/bin/../../lib\libc-elf.a(strncpy.XXeo)
                              build/default/production/_ext/867694782/Helpers.o (_strncpy)


Program Memory  [Origin = 0x200, Length = 0x2a9f6]

section                    address   length (PC units)   length (bytes) (dec)
-------                    -------   -----------------   --------------------
.text                        0x200               0x7aa           0xb7f  (2943)
.const                       0x9aa               0x3e6           0x5d9  (1497)
.text                        0xd90              0x8eea          0xd65f  (54879)
.dinit                      0x9c7a               0x352           0x4fb  (1275)
.text                       0x9fcc              0x2672          0x39ab  (14763)

                     Total program memory used (bytes):        0x1265d  (75357) 28%


Data Memory  [Origin = 0x800, Length = 0x18000]

section                    address      alignment gaps    total length  (dec)
-------                    -------      --------------    -------------------
.nbss                        0x800                   0           0x19c  (412)
.ndata                       0x99c                   0           0x18a  (394)
.nbss                        0xb26                   0           0x3aa  (938)
.ndata                       0xed0                   0            0xa4  (164)
.nbss                        0xf74                   0            0x36  (54)
.ndata                       0xfaa                   0            0x46  (70)
.nbss                        0xff0                   0            0x5e  (94)
.ndata                      0x104e                   0            0x16  (22)
.nbss                       0x1064                   0            0x5a  (90)
.ndata                      0x10be                   0            0x18  (24)
.nbss                       0x10d6                   0            0x52  (82)
.ndata                      0x1128                   0             0xc  (12)
.nbss                       0x1134                   0             0x8  (8)
.ndata                      0x113c                   0             0x2  (2)
.nbss                       0x113e                   0             0x2  (2)
.ndata                      0x1140                   0            0x10  (16)
.nbss                       0x1150                   0             0x2  (2)
.ndata                      0x1152                   0             0x2  (2)
_03bbbd2059768334           0x1154                   0             0x2  (2)
.ndata                      0x1156                   0             0x4  (4)
_03d5154059768334           0x115a                   0             0x2  (2)
.ndata                      0x115c                   0             0x2  (2)
.bss                        0x115e                   0            0x54  (84)

                        Total data memory used (bytes):          0x9b2  (2482) 2%


Dynamic Memory Usage

region                     address                      maximum length  (dec)
------                     -------                      ---------------------
heap                             0                                   0  (0)
stack                       0x11b2                              0x6e4e  (28238)

                        Maximum dynamic memory (bytes):         0x6e4e  (28238)


External Symbols in Data Memory (by address):

                    0x099c                  _OMB_Software_Ver
                    0x099e                  _MainEvent
                    0x0ad4                  _IntDrivenEvent
                    0x0b16                  _Flag
                    0x0b26                  _SPI1_RxBuffer
                    0x0c24                  _I2C1_RxdataBuffer
                    0x0c34                  _I2C1_TxdataBuffer
                    0x0d02                  _UDPSocketInfo
                    0x0dc2                  _activeUDPSocket
                    0x0dc4                  _UDPTxCount
                    0x0dc6                  _UDPRxCount
                    0x0dde                  _Local_pointer_page
                    0x0de4                  _Local_Pointer
                    0x0de6                  _Local_APPPointer
                    0x0de8                  _Local_APPpointer_page
                    0x0e1b                  _ModBus_DataRx
                    0x0e24                  _ModBus_DataTx
                    0x0e58                  _CO2cv
                    0x0e5a                  _IRCO2cv
                    0x0e5c                  _O2cv
                    0x0e5e                  _RHcv
                    0x0e60                  _ADCpt100
                    0x0e62                  _ADCntc
                    0x0e64                  _Vtc
                    0x0e66                  _ADCtc
                    0x0e68                  _Vvsl
                    0x0e6a                  _ADCvsl
                    0x0e6c                  _Vbat
                    0x0e6e                  _Vopt1
                    0x0e70                  _ADCopt1
                    0x0e72                  _Vopt2
                    0x0e74                  _ADCopt2
                    0x0e76                  _Vopt3
                    0x0e78                  _Vxtr
                    0x0e7a                  _Vdac
                    0x0e7c                  _Rpt100
                    0x0e7e                  _Rntc
                    0x0e80                  _ActualTcv
                    0x0e84                  _ActualTcvNTC
                    0x0e88                  _Tcv_total
                    0x0e8c                  _Tamb_total
                    0x0e90                  _Tamb_avg
                    0x0e94                  _CO2cv_total
                    0x0e98                  _CO2cv_avg
                    0x0e9c                  _IRCO2cv_total
                    0x0ea0                  _IRCO2cv_avg
                    0x0ea4                  _ADCbat
                    0x0ea6                  _batt_total
                    0x0eaa                  _batt_avg
                    0x0eae                  _O2cv_total
                    0x0eb2                  _O2cv_avg
                    0x0eb6                  _RHcv_total
                    0x0eba                  _RHcv_avg
                    0x0ebe                  _ADCopt3
                    0x0ec0                  _Vopt3_total
                    0x0ec4                  _Vopt3_avg
                    0x0ec8                  _ADCxtr
                    0x0eca                  _ADCdac
                    0x0ecc                  _ADC2500vref
                    0x0ece                  _ADC0vref
                    0x0ed0                  _Moving_Avg_Window
                    0x0ed2                  _Tcv
                    0x0ed4                  _n_Tcv
                    0x0ed6                  _Rntc_Rmin
                    0x0ed8                  _Rntc_Rnom
                    0x0eda                  _Rntc_ADCmin
                    0x0edc                  _Rntc_ADCnom
                    0x0ede                  _Tamb
                    0x0ee0                  _n_Tamb
                    0x0ee2                  _Vtc_ADCmin
                    0x0ee4                  _Vtc_ADCnom
                    0x0ee6                  _n_CO2cv
                    0x0ee8                  _Vvsl_ADCmin
                    0x0eea                  _Vvsl_ADCnom
                    0x0eec                  _n_IRCO2cv
                    0x0eee                  _Vbat_ADCmin
                    0x0ef0                  _Vbat_ADCnom
                    0x0ef2                  _n_batt
                    0x0ef4                  _Vopt1_ADCmin
                    0x0ef6                  _Vopt1_ADCnom
                    0x0ef8                  _n_O2cv
                    0x0efa                  _Vopt2_ADCmin
                    0x0efc                  _Vopt2_ADCnom
                    0x0efe                  _n_RHcv
                    0x0f00                  _Vopt3_ADCmin
                    0x0f02                  _Vopt3_ADCnom
                    0x0f04                  _n_Vopt3
                    0x0f06                  _LOW_VOLT_CAL
                    0x0f08                  _HIGH_VOLT_CAL
                    0x0f0a                  _PT100_Tmin
                    0x0f0c                  _PT100_Tnom
                    0x0f0e                  _O2_Slope
                    0x0f10                  _O2_Offset
                    0x0f12                  _RH_Slope
                    0x0f14                  _RH_Offset
                    0x0f16                  _TC_0
                    0x0f18                  _TC_5
                    0x0f1a                  _TC_15
                    0x0f1c                  _IRCO2_Slope
                    0x0f1e                  _IRCO2_Offset
                    0x0f20                  _Analog_Slope
                    0x0f22                  _Analog_Offset
                    0x0f24                  _RTC_Event
                    0x0f74                  _Dummy
                    0x0f76                  _AppConfig
                    0x0faa                  _T_Itemp
                    0x0fae                  _Tr
                    0x0fb0                  _Tsp_old
                    0x0fb2                  _Ktn
                    0x0fb4                  _PWM_MainHeater
                    0x0fb6                  _CObias
                    0x0fba                  _SigmaT_SP
                    0x0fbe                  _SigmaT
                    0x0fc2                  _Delta_Sigma
                    0x0fc6                  _DutyCycle
                    0x0fca                  _HeatAction
                    0x0fcc                  _PrevError
                    0x0fd0                  _V1_DAC_CH
                    0x0fe0                  _V2_DAC_CH
                    0x0ff0                  _I2C3_dataBuffer
                    0x100e                  _I2C3_dataBuffer_Cnt
                    0x100f                  _I2C3_Flag
                    0x1030                  _U2RxBuffer
                    0x104e                  _VoyagerRegTable
                    0x107a                  _U1RxBuffer
                    0x108e                  _S35390_DataBuffer
                    0x1096                  _YearBuffer
                    0x1098                  _MonthBuffer
                    0x1099                  _DayBuffer
                    0x109a                  _HourBuffer
                    0x109b                  _MinuteBuffer
                    0x109c                  _SecondsBuffer
                    0x109e                  _RegAddres_Write
                    0x10a0                  _Reg_Write_Val
                    0x10a2                  _I2C1_DataFrame
                    0x10b4                  _remoteNode
                    0x10be                  _prevRHsp
                    0x10c0                  _RH_PIDOut
                    0x10c4                  _RHAction
                    0x10c6                  _PrevRHError
                    0x10c8                  _CObias_RH
                    0x10cc                  _prevCO2sp
                    0x10ce                  _CO2injectAction
                    0x10d0                  _PrevCO2Error
                    0x10d4                  _TargetCO2Error
                    0x10d6                  _O2RS485Register
                    0x10e0                  _Data_DAC
                    0x10e6                  _Data_DACtoTx
                    0x10f4                  _charBuff
                    0x10fe                  _CO2RS485_FinalBuffer
                    0x110e                  _RH_Itemp
                    0x1112                  _TargetRHError
                    0x1114                  _prevTsp
                    0x1116                  _TargetError
                    0x111a                  _LTC2439RxBuff
                    0x111c                  _TotalData_LTC2439
                    0x1120                  _CO2_Itemp
                    0x1124                  _O2_Itemp
                    0x1128                  _O2RS485RxCnt
                    0x112a                  _O2SendCnt
                    0x112c                  _CO2RS485_RxReadCnt
                    0x112e                  _SendCount
                    0x113c                  _prevO2sp
                    0x113e                  _CelSafeOptions
                    0x1140                  _BuzFlag
                    0x1142                  _UV_RunTimer
                    0x1144                  _ByteCheck
                    0x1146                  _U2RxBuf_Counter
                    0x1148                  _U1RxBuf_Counter
                    0x114a                  _Counter1
                    0x114c                  _SPI1_RxBuff_Cnt
                    0x114e                  _I2C1_RxBuff_Cnt
                    0x114f                  _I2C1_TxBuff_Cnt
                    0x1150                  _RTC_Flag
                    0x1156                  _DHCPClientInitializedOnce
                    0x115c                  ___C30_UART
                    0x115e                  _Tsp
                    0x1160                  _Tsp_ha
                    0x1162                  _Tsp_la
                    0x1164                  _Tsp_da
                    0x1166                  _T_pnum
                    0x1168                  _T_pdnum
                    0x116a                  _T_inum
                    0x116c                  _T_idnum
                    0x116e                  _Pan_Heater_Ratio
                    0x1170                  _Tcv_Offset
                    0x1172                  _Base_Htr_PR
                    0x1174                  _Door_Htr_PR
                    0x1176                  _Decon_Htr_PR
                    0x1178                  _RHcv_Offset
                    0x117a                  _RHsp
                    0x117c                  _RH_ha
                    0x117e                  _RH_la
                    0x1180                  _RH_pnum
                    0x1182                  _RH_pdnum
                    0x1184                  _RH_inum
                    0x1186                  _RH_idnum
                    0x1188                  _NTCsp
                    0x118a                  _CO2cv_Offset
                    0x118c                  _CO2sp
                    0x118e                  _CO2_ha
                    0x1190                  _CO2_la
                    0x1192                  _CO2_pnum
                    0x1194                  _CO2_pdnum
                    0x1196                  _CO2_inum
                    0x1198                  _CO2_idnum
                    0x119a                  _O2cv_Offset
                    0x119c                  _O2sp
                    0x119e                  _O2_ha
                    0x11a0                  _O2_la
                    0x11a2                  _O2_pnum
                    0x11a4                  _O2_pdnum
                    0x11a6                  _O2_inum
                    0x11a8                  _O2_idnum
                    0x11aa                  _Rpt100_Rmin
                    0x11ac                  _Rpt100_Rnom
                    0x11ae                  _Rpt100_ADCmin
                    0x11b0                  _Rpt100_ADCnom

External Symbols in Data Memory (by name):

                    0x0ece                  _ADC0vref
                    0x0ecc                  _ADC2500vref
                    0x0ea4                  _ADCbat
                    0x0eca                  _ADCdac
                    0x0e62                  _ADCntc
                    0x0e70                  _ADCopt1
                    0x0e74                  _ADCopt2
                    0x0ebe                  _ADCopt3
                    0x0e60                  _ADCpt100
                    0x0e66                  _ADCtc
                    0x0e6a                  _ADCvsl
                    0x0ec8                  _ADCxtr
                    0x0e80                  _ActualTcv
                    0x0e84                  _ActualTcvNTC
                    0x0f22                  _Analog_Offset
                    0x0f20                  _Analog_Slope
                    0x0f76                  _AppConfig
                    0x1172                  _Base_Htr_PR
                    0x1140                  _BuzFlag
                    0x1144                  _ByteCheck
                    0x10fe                  _CO2RS485_FinalBuffer
                    0x112c                  _CO2RS485_RxReadCnt
                    0x1120                  _CO2_Itemp
                    0x118e                  _CO2_ha
                    0x1198                  _CO2_idnum
                    0x1196                  _CO2_inum
                    0x1190                  _CO2_la
                    0x1194                  _CO2_pdnum
                    0x1192                  _CO2_pnum
                    0x0e58                  _CO2cv
                    0x118a                  _CO2cv_Offset
                    0x0e98                  _CO2cv_avg
                    0x0e94                  _CO2cv_total
                    0x10ce                  _CO2injectAction
                    0x118c                  _CO2sp
                    0x0fb6                  _CObias
                    0x10c8                  _CObias_RH
                    0x113e                  _CelSafeOptions
                    0x114a                  _Counter1
                    0x1156                  _DHCPClientInitializedOnce
                    0x10e0                  _Data_DAC
                    0x10e6                  _Data_DACtoTx
                    0x1099                  _DayBuffer
                    0x1176                  _Decon_Htr_PR
                    0x0fc2                  _Delta_Sigma
                    0x1174                  _Door_Htr_PR
                    0x0f74                  _Dummy
                    0x0fc6                  _DutyCycle
                    0x0b16                  _Flag
                    0x0f08                  _HIGH_VOLT_CAL
                    0x0fca                  _HeatAction
                    0x109a                  _HourBuffer
                    0x10a2                  _I2C1_DataFrame
                    0x114e                  _I2C1_RxBuff_Cnt
                    0x0c24                  _I2C1_RxdataBuffer
                    0x114f                  _I2C1_TxBuff_Cnt
                    0x0c34                  _I2C1_TxdataBuffer
                    0x100f                  _I2C3_Flag
                    0x0ff0                  _I2C3_dataBuffer
                    0x100e                  _I2C3_dataBuffer_Cnt
                    0x0f1e                  _IRCO2_Offset
                    0x0f1c                  _IRCO2_Slope
                    0x0e5a                  _IRCO2cv
                    0x0ea0                  _IRCO2cv_avg
                    0x0e9c                  _IRCO2cv_total
                    0x0ad4                  _IntDrivenEvent
                    0x0fb2                  _Ktn
                    0x0f06                  _LOW_VOLT_CAL
                    0x111a                  _LTC2439RxBuff
                    0x0de6                  _Local_APPPointer
                    0x0de8                  _Local_APPpointer_page
                    0x0de4                  _Local_Pointer
                    0x0dde                  _Local_pointer_page
                    0x099e                  _MainEvent
                    0x109b                  _MinuteBuffer
                    0x0e1b                  _ModBus_DataRx
                    0x0e24                  _ModBus_DataTx
                    0x1098                  _MonthBuffer
                    0x0ed0                  _Moving_Avg_Window
                    0x1188                  _NTCsp
                    0x10d6                  _O2RS485Register
                    0x1128                  _O2RS485RxCnt
                    0x112a                  _O2SendCnt
                    0x1124                  _O2_Itemp
                    0x0f10                  _O2_Offset
                    0x0f0e                  _O2_Slope
                    0x119e                  _O2_ha
                    0x11a8                  _O2_idnum
                    0x11a6                  _O2_inum
                    0x11a0                  _O2_la
                    0x11a4                  _O2_pdnum
                    0x11a2                  _O2_pnum
                    0x0e5c                  _O2cv
                    0x119a                  _O2cv_Offset
                    0x0eb2                  _O2cv_avg
                    0x0eae                  _O2cv_total
                    0x119c                  _O2sp
                    0x099c                  _OMB_Software_Ver
                    0x0f0a                  _PT100_Tmin
                    0x0f0c                  _PT100_Tnom
                    0x0fb4                  _PWM_MainHeater
                    0x116e                  _Pan_Heater_Ratio
                    0x10d0                  _PrevCO2Error
                    0x0fcc                  _PrevError
                    0x10c6                  _PrevRHError
                    0x10c4                  _RHAction
                    0x110e                  _RH_Itemp
                    0x0f14                  _RH_Offset
                    0x10c0                  _RH_PIDOut
                    0x0f12                  _RH_Slope
                    0x117c                  _RH_ha
                    0x1186                  _RH_idnum
                    0x1184                  _RH_inum
                    0x117e                  _RH_la
                    0x1182                  _RH_pdnum
                    0x1180                  _RH_pnum
                    0x0e5e                  _RHcv
                    0x1178                  _RHcv_Offset
                    0x0eba                  _RHcv_avg
                    0x0eb6                  _RHcv_total
                    0x117a                  _RHsp
                    0x0f24                  _RTC_Event
                    0x1150                  _RTC_Flag
                    0x109e                  _RegAddres_Write
                    0x10a0                  _Reg_Write_Val
                    0x0e7e                  _Rntc
                    0x0eda                  _Rntc_ADCmin
                    0x0edc                  _Rntc_ADCnom
                    0x0ed6                  _Rntc_Rmin
                    0x0ed8                  _Rntc_Rnom
                    0x0e7c                  _Rpt100
                    0x11ae                  _Rpt100_ADCmin
                    0x11b0                  _Rpt100_ADCnom
                    0x11aa                  _Rpt100_Rmin
                    0x11ac                  _Rpt100_Rnom
                    0x108e                  _S35390_DataBuffer
                    0x114c                  _SPI1_RxBuff_Cnt
                    0x0b26                  _SPI1_RxBuffer
                    0x109c                  _SecondsBuffer
                    0x112e                  _SendCount
                    0x0fbe                  _SigmaT
                    0x0fba                  _SigmaT_SP
                    0x0f16                  _TC_0
                    0x0f1a                  _TC_15
                    0x0f18                  _TC_5
                    0x0faa                  _T_Itemp
                    0x116c                  _T_idnum
                    0x116a                  _T_inum
                    0x1168                  _T_pdnum
                    0x1166                  _T_pnum
                    0x0ede                  _Tamb
                    0x0e90                  _Tamb_avg
                    0x0e8c                  _Tamb_total
                    0x10d4                  _TargetCO2Error
                    0x1116                  _TargetError
                    0x1112                  _TargetRHError
                    0x0ed2                  _Tcv
                    0x1170                  _Tcv_Offset
                    0x0e88                  _Tcv_total
                    0x111c                  _TotalData_LTC2439
                    0x0fae                  _Tr
                    0x115e                  _Tsp
                    0x1164                  _Tsp_da
                    0x1160                  _Tsp_ha
                    0x1162                  _Tsp_la
                    0x0fb0                  _Tsp_old
                    0x1148                  _U1RxBuf_Counter
                    0x107a                  _U1RxBuffer
                    0x1146                  _U2RxBuf_Counter
                    0x1030                  _U2RxBuffer
                    0x0dc6                  _UDPRxCount
                    0x0d02                  _UDPSocketInfo
                    0x0dc4                  _UDPTxCount
                    0x1142                  _UV_RunTimer
                    0x0fd0                  _V1_DAC_CH
                    0x0fe0                  _V2_DAC_CH
                    0x0e6c                  _Vbat
                    0x0eee                  _Vbat_ADCmin
                    0x0ef0                  _Vbat_ADCnom
                    0x0e7a                  _Vdac
                    0x0e6e                  _Vopt1
                    0x0ef4                  _Vopt1_ADCmin
                    0x0ef6                  _Vopt1_ADCnom
                    0x0e72                  _Vopt2
                    0x0efa                  _Vopt2_ADCmin
                    0x0efc                  _Vopt2_ADCnom
                    0x0e76                  _Vopt3
                    0x0f00                  _Vopt3_ADCmin
                    0x0f02                  _Vopt3_ADCnom
                    0x0ec4                  _Vopt3_avg
                    0x0ec0                  _Vopt3_total
                    0x104e                  _VoyagerRegTable
                    0x0e64                  _Vtc
                    0x0ee2                  _Vtc_ADCmin
                    0x0ee4                  _Vtc_ADCnom
                    0x0e68                  _Vvsl
                    0x0ee8                  _Vvsl_ADCmin
                    0x0eea                  _Vvsl_ADCnom
                    0x0e78                  _Vxtr
                    0x1096                  _YearBuffer
                    0x115c                  ___C30_UART
                    0x0dc2                  _activeUDPSocket
                    0x0eaa                  _batt_avg
                    0x0ea6                  _batt_total
                    0x10f4                  _charBuff
                    0x0ee6                  _n_CO2cv
                    0x0eec                  _n_IRCO2cv
                    0x0ef8                  _n_O2cv
                    0x0efe                  _n_RHcv
                    0x0ee0                  _n_Tamb
                    0x0ed4                  _n_Tcv
                    0x0f04                  _n_Vopt3
                    0x0ef2                  _n_batt
                    0x10cc                  _prevCO2sp
                    0x113c                  _prevO2sp
                    0x10be                  _prevRHsp
                    0x1114                  _prevTsp
                    0x10b4                  _remoteNode

External Symbols in Program Memory (by address):

                  0x000200                  __resetPRI
                  0x000222                  __psv_init
                  0x00022e                  __data_init_extended
                  0x00022e                  __data_init
                  0x00035c                  __DefaultInterrupt
                  0x000360                  ___subsf3
                  0x000362                  ___addsf3
                  0x00041c                  ___divsf3
                  0x0004a0                  ___divsi3
                  0x0004be                  ___ltsf2
                  0x0004be                  ___eqsf2
                  0x0004be                  ___lesf2
                  0x0004c2                  ___gtsf2
                  0x0004c2                  ___gesf2
                  0x0004c6                  ___fixsfsi
                  0x000508                  ___fixunssfsi
                  0x00053e                  ___floatsisf
                  0x000594                  __fpack
                  0x0005e0                  __funpack
                  0x00060a                  __funpack2
                  0x00061a                  __fPropagateNaN
                  0x00062c                  __fbopExit
                  0x000634                  __fbopReturnNaN
                  0x00063a                  ___modsi3
                  0x000658                  ___mulsf3
                  0x0006c0                  ___udivsi3
                  0x0006e0                  ___umodsi3
                  0x00070c                  ___udivmoddi3
                  0x000834                  ___udivdi3
                  0x000842                  ___umoddi3
                  0x00084a                  ___divdi3
                  0x0008b6                  ___moddi3
                  0x00091e                  __fcompare
                  0x000954                  _memcpy
                  0x000962                  _memset
                  0x000970                  _strlen
                  0x00097c                  _strncpy
                  0x0009aa                  _CLSRegister
                  0x000cf2                  _TCPSocketInitializer
                  0x000e2c                  _TCPInit
                  0x000ef6                  _TCPOpen
                  0x001002                  _TCPWasReset
                  0x001032                  _TCPIsConnected
                  0x00105a                  _TCPDisconnect
                  0x0010f2                  _TCPClose
                  0x00110a                  _TCPGetRemoteInfo
                  0x001136                  _TCPFlush
                  0x001158                  _TCPIsPutReady
                  0x0011ae                  _TCPPut
                  0x001244                  _TCPPutArray
                  0x00131c                  _TCPPutString
                  0x001338                  _TCPGetTxFIFOFull
                  0x001366                  _TCPDiscard
                  0x001384                  _TCPIsGetReady
                  0x0013c2                  _TCPGet
                  0x00142a                  _TCPGetArray
                  0x0014e4                  _TCPGetRxFIFOFree
                  0x001510                  _TCPPeekArray
                  0x0015bc                  _TCPPeek
                  0x0015d4                  _TCPFindArrayEx
                  0x00185e                  _TCPFindEx
                  0x00187c                  _TCPTick
                  0x001c5e                  _TCPProcess
                  0x002d06                  _TCPAdjustFIFOSize
                  0x002f10                  _MACInit
                  0x003030                  _MACIsLinked
                  0x003044                  _MACIsTxReady
                  0x00305c                  _MACDiscardRx
                  0x003090                  _MACGetFreeRxSize
                  0x003118                  _MACGetHeader
                  0x0031f8                  _MACPutHeader
                  0x00324c                  _MACFlush
                  0x003368                  _MACSetReadPtrInRx
                  0x003396                  _MACSetWritePtr
                  0x0033c4                  _MACSetReadPtr
                  0x0033f2                  _MACCalcRxChecksum
                  0x00344a                  _CalcIPBufferChecksum
                  0x0034fe                  _MACMemCopyAsync
                  0x0036b0                  _MACIsMemCopyDone
                  0x0036c8                  _MACGet
                  0x0036fa                  _MACGetArray
                  0x0037d4                  _MACPut
                  0x00380c                  _MACPutArray
                  0x0039c4                  _ReadPHYReg
                  0x003af6                  _WritePHYReg
                  0x003b46                  _MACPowerDown
                  0x003b74                  _MACPowerUp
                  0x003b94                  _SetCLKOUT
                  0x003baa                  _GetCLKOUT
                  0x003bc4                  _EventTCPIP
                  0x003c5e                  _Return_APPPage_Pointer
                  0x003c66                  _Return_NVMPage_Pointer
                  0x003c6e                  _InitAppConfig
                  0x003e1a                  _SaveAppConfig
                  0x0040d8                  _DisplayIPValue
                  0x00410c                  __AddressError
                  0x004116                  __StackError
                  0x004120                  _TPCIP_Voyager_Init_Task
                  0x0042dc                  _TPCIP_Voyager_Task
                  0x004406                  _ProcessModBus_TCPIP
                  0x004448                  _Process_ModbusTCP_ReadFunction
                  0x0045a6                  _Process_ModbusTCP_WriteFunction
                  0x0046c2                  _EventSelfCalibLTC2439AIN
                  0x004720                  _EventUpdate_PT100channel
                  0x0047e8                  _EventUpdate_NTCchannel
                  0x004888                  _EventUpdate_TCCO2channel
                  0x004926                  _EventUpdate_IRCO2channel
                  0x0049f6                  _EventUpdate_Battchannel
                  0x004aa6                  _EventUpdate_Opt2channel
                  0x004b46                  _EventUpdate_RHchannel
                  0x004c10                  _EventUpdate_Opt3channel
                  0x004cc0                  _GetValue_Slope
                  0x004d1c                  _GetValue_2points
                  0x004e02                  _GetTCCO2
                  0x004e54                  _GetIRCO2
                  0x004e80                  _GetNTCtemp
                  0x004ea4                  _GetPT100temp
                  0x004ec8                  _GetO2
                  0x004f1a                  _GetRH
                  0x004f46                  _NTCLookUpTable
                  0x005008                  _PT100LookUpTable
                  0x00509a                  _EventUpdateTempPIControl
                  0x0050dc                  _Run_PID_Heater
                  0x0051fe                  _Stop_PID_Heater
                  0x005220                  _Stop_Door_Heater
                  0x00523a                  _SetCOBias
                  0x005248                  _Ret_T_PIDcalculation
                  0x0055aa                  _TempAlarm_Update
                  0x00563e                  _ClearTempALarm
                  0x005654                  _EventFanDeconOn
                  0x005686                  _EventFanDeconOff
                  0x0056b8                  _EventPumpChamberOn
                  0x0056ea                  _EventPumpChamberOff
                  0x00571c                  _Send_DataToPC
                  0x00574e                  _Event_Control_Enabled
                  0x005770                  _Event_Control_Disabled
                  0x005796                  _EventColdStartUp
                  0x005814                  _RTCEventPumpChamberOn
                  0x005894                  _RTCEventPumpChamberOff
                  0x005948                  _Event_Temp_Supervisory
                  0x0059b4                  _DHCPInit
                  0x0059f0                  _DHCPDisable
                  0x005a0a                  _DHCPEnable
                  0x005a1e                  _DHCPIsEnabled
                  0x005a36                  _DHCPIsBound
                  0x005a44                  _DHCPStateChanged
                  0x005a62                  _DHCPIsServerDetected
                  0x005a72                  _DHCPTempIPAddr
                  0x005aa8                  _DHCPTask
                  0x006176                  _EventUpdateUTI_Communication
                  0x006184                  _Is_I2C1_FrameData_Valid
                  0x0061b6                  _Process_I2C1_FrameData
                  0x0061d6                  _Process_I2C1_ReadFunction
                  0x0062d2                  _Process_I2C1_WriteFunction
                  0x006344                  _SendException_ReadFunction
                  0x0063ac                  _SendException_WriteFunction
                  0x006414                  _CompileRxBufferToFrame
                  0x006498                  _ReadShakerRegisterFromEEPROM
                  0x0066d4                  _Flush_I2C1FrameBuff
                  0x0066fe                  _Event_Int_I2C_Write_Reg
                  0x00692c                  _LFSRSeedRand
                  0x00696c                  _LFSRRand
                  0x0069da                  _GenerateRandomDWORD
                  0x006ad0                  _StringToIPAddress
                  0x006c58                  _uitoa
                  0x006cd6                  _hexatob
                  0x006d4c                  _btohexa_high
                  0x006d74                  _btohexa_low
                  0x006d9a                  _stricmppgm2ram
                  0x006e32                  _swaps
                  0x006e4c                  _swapl
                  0x006eaa                  _CalcIPChecksum
                  0x006f1e                  _strupr
                  0x006f58                  _FormatNetBIOSName
                  0x006fa0                  _strnchr
                  0x006fe6                  _strncpy_m
                  0x00704c                  _UDPInit
                  0x007066                  _UDPOpenEx
                  0x007142                  _UDPTask
                  0x007262                  _UDPIsOpened
                  0x007284                  _UDPClose
                  0x0072bc                  _UDPSetTxBuffer
                  0x0072ce                  _UDPSetRxBuffer
                  0x0072e0                  _UDPIsPutReady
                  0x007314                  _UDPPut
                  0x007346                  _UDPPutArray
                  0x00737c                  _UDPPutString
                  0x007390                  _UDPFlush
                  0x007456                  _UDPIsGetReady
                  0x007486                  _UDPGet
                  0x0074ba                  _UDPGetArray
                  0x007502                  _UDPDiscard
                  0x00751c                  _UDPProcess
                  0x0076c8                  _stringCopy
                  0x0076ec                  _stringCat
                  0x00771c                  _WordToString
                  0x00780e                  _FloatToString_4Pt2Dec
                  0x007a36                  _Delay_uS
                  0x007a66                  _CalcCRC16
                  0x007ad0                  _strLen
                  0x007af0                  _Power
                  0x007b2c                  _StringToWord
                  0x007b88                  _StringToLONG
                  0x007bf2                  _SortWordBufferAsc
                  0x007d06                  _EventUpdateCO2PIControl
                  0x007d46                  _Run_PID_CO2Injection
                  0x007d50                  _Stop_PID_CO2Injection
                  0x007d5a                  _Ret_CO2_PIDcalculation
                  0x008034                  _CO2Alarm_Update
                  0x00807e                  _ClearCO2ALarm
                  0x008094                  _Update_CO2Injection_PWM
                  0x0080e6                  _CO2_SolenoidSystem
                  0x00814e                  _Event_CO2_MainSol_On
                  0x00816a                  _Event_CO2_MainSol_Off
                  0x008186                  _Event_CO2_BackSol_On
                  0x0081a2                  _Event_CO2_BackSol_Off
                  0x0081be                  _CalibrateAnalogOut
                  0x0084b2                  _InitializeAnalogOut
                  0x0084c2                  _UpdateDAC
                  0x008554                  _CompileDAC_Data
                  0x0085ea                  _TxSPIData_DAC
                  0x008616                  _Update_RawDAC
                  0x008634                  _EventUpdateRHPIControl
                  0x00865a                  _Ret_RH_PIDcalculation
                  0x008904                  _RHAlarm_Update
                  0x00894a                  _ClearRHALarm
                  0x008960                  _Event_RH_Control
                  0x00899e                  _Event_RH_Control_Off
                  0x0089b8                  _Event_RH_Control_Enabled
                  0x0089ca                  _Event_RH_Control_Disabled
                  0x0089de                  _RH_ControlWithNTC
                  0x0089f6                  _RH_ControlWithRHSensor
                  0x008a2a                  _EventSolenoidRHControlOff
                  0x008a36                  _EventSolenoidRHControlOn
                  0x008a60                  _ARPSendPkt
                  0x008b12                  _ARPInit
                  0x008b58                  _ARPProcess
                  0x008c54                  _ARPResolve
                  0x008d20                  _ARPIsResolved
                  0x008e1a                  _SwapARPPacket
                  0x008e46                  _EventUpdateO2PIControl
                  0x008e8a                  _Run_PID_O2Injection
                  0x008e94                  _Stop_PID_O2Injection
                  0x008e9e                  _Ret_O2_PIDcalculation
                  0x009072                  _O2Alarm_Update
                  0x0090b8                  _ClearO2Alarm
                  0x0090ce                  _Update_O2Injection_PWM
                  0x009120                  _O2_SolenoidSystem
                  0x009188                  _Event_O2_MainSol_On
                  0x0091a4                  _Event_O2_MainSol_Off
                  0x0091c0                  _Event_O2_BackSol_On
                  0x0091dc                  _Event_O2_BackSol_Off
                  0x0091f8                  _UpdateSystemSensor
                  0x009264                  _UpdateSystemMode
                  0x0092ac                  _Set_FactoryMode
                  0x0092cc                  _Set_NormalMode
                  0x009348                  _Set_DeconMode
                  0x0093b8                  _Set_DeconStopMode
                  0x0093ce                  _UpdateOutput
                  0x0093fa                  _Output_Manual_Control
                  0x00956c                  _EventEMLock
                  0x00958e                  _Exp_FailSafe_Relay_On
                  0x0095a0                  _Exp_FailSafe_Relay_Off
                  0x0095b2                  _FailSafe_Relay_On
                  0x0095c4                  _FailSafe_Relay_Off
                  0x0095d6                  _Set_Analog_Mux
                  0x00963e                  _Enable_AnalogMux
                  0x009650                  _Disable_AnalogMux
                  0x009662                  _TurnOffAllOutputs
                  0x0096e6                  _SetOutPut
                  0x00991a                  _RunForeGroundEvents
                  0x00998e                  _RunBackGroundEvents
                  0x009a28                  _SetMainEventPeriod
                  0x009a62                  _SetMainEventRunningTimer
                  0x009a9c                  _SetMainEventENDIS
                  0x009ad6                  _SetMainEventType
                  0x009b10                  _RetMainEventType
                  0x009b4c                  _RetMainEventENDIS
                  0x009b88                  _StartONCEMainEvent
                  0x009bde                  _SetIntDrivenEventENDIS
                  0x009c18                  _SetIntDrivenEventFlag
                  0x009c52                  _ReturnFlag
                  0x009c64                  _SetFlag
                  0x009fcc                  _Initialize_O2RS485
                  0x009fde                  _Stop_O2RS485
                  0x009fea                  _Calibrate_O2RS485
                  0x00a004                  _EventUpdateRS485O2Sensor
                  0x00a03c                  _EventUpdateRS485O2Sensor_RxUpdate
                  0x00a09a                  _EventWriteRS485O2Sensor
                  0x00a11e                  _RS485O2SensorCmd
                  0x00a160                  _RS485_ProcessFrame
                  0x00a1b6                  _RS485O2_ProcessReadFunc
                  0x00a248                  _RS485O2_ProcessWriteFunc
                  0x00a2b8                  _returnO2RS485RegIndex
                  0x00a306                  _ReturnRefrigerant_PSW
                  0x00a312                  _ReturnO2N2Tank_1_PSW
                  0x00a320                  _ReturnO2N2Tank_2_PSW
                  0x00a330                  _ReturnDoor_SW
                  0x00a340                  _ReturnThermostat_SW
                  0x00a350                  _ReturnSMPSFailure_Detection
                  0x00a35c                  _ReturnCO2Tank_1_PSW
                  0x00a36c                  _ReturnCO2Tank_2_PSW
                  0x00a37c                  _ReturnWaterLevelSensor
                  0x00a38c                  _EventUpdateDigitalSensors
                  0x00a506                  _EventDoor
                  0x00a5ac                  _EventThermostat
                  0x00a5e2                  _EventWaterLevel
                  0x00a60a                  _s35390_Read
                  0x00a676                  _s35390_Write
                  0x00a6ce                  _s35390_Initialize
                  0x00a706                  _S35390_ConvertRTData
                  0x00a7b6                  _CompileStringTo_S35390_RT1Data
                  0x00a7e6                  _s35390_GetDate_And_Time
                  0x00a842                  _s35390_SetTime
                  0x00a874                  _s35390_SetDate
                  0x00a8aa                  _s35390_FlushBuffer
                  0x00a8c8                  _Initialize_OC_Module
                  0x00aab2                  _Update_OC1_PWM
                  0x00aacc                  _Update_OC2_PWM
                  0x00aae6                  _Update_Zone1_OC3_PWM
                  0x00ab00                  _Update_Zone2_OC4_PWM
                  0x00ab1a                  _Update_Zone3_OC5_PWM
                  0x00ab34                  _Update_Zone4_OC6_PWM
                  0x00ab4e                  _Update_Zone5_OC7_PWM
                  0x00ab68                  _Update_Zone6_OC8_PWM
                  0x00ab82                  _StackInit
                  0x00abb4                  _StackTask
                  0x00adb2                  _StackApplications
                  0x00adba                  _Initialize_I2C3_Module
                  0x00ade6                  _I2C3_startBit
                  0x00adee                  _I2C3_Idle_Bus
                  0x00ae00                  _I2C3_REstartBit
                  0x00ae10                  _I2C3_stopBit
                  0x00ae4e                  _I2C3_Is_AckBit
                  0x00ae6a                  _I2C3_Send_Ack
                  0x00ae7e                  _I2C3_Send_NAck
                  0x00aeba                  _I2C3_MasterReceive_Enable
                  0x00aec2                  _I2C3_Send_Byte
                  0x00aef8                  _I2C3_Receive_Byte
                  0x00af30                  _I2C23Master_Poll_Slave
                  0x00af56                  _Flush_I2C3RxBuffer
                  0x00af78                  _Return_I2C3RxBuffer
                  0x00af80                  __Interrupt85
                  0x00af90                  _I2C3_Open
                  0x00af9c                  _I2C3_Close
                  0x00afa8                  _FLASH_SendData
                  0x00afc8                  _FLASH_SendStatusCmmd
                  0x00afda                  _FLASH_SectorErase
                  0x00b026                  _FLASH_ChipErase
                  0x00b046                  _FLASH_ReadStatusReg
                  0x00b07a                  _FLASH_WriteStatusReg
                  0x00b09c                  _FLASH_Read
                  0x00b116                  _FLASH_ByteProgram
                  0x00b15a                  _FLASH_MultiByteProgram
                  0x00b18a                  _main
                  0x00b34c                  ___UserGIE
                  0x00b358                  ___UserGDE
                  0x00b364                  _Initialize_UART2_Module
                  0x00b3bc                  _U5_Chip_TxEnable
                  0x00b3ca                  _U5_Chip_RxEnable
                  0x00b3d8                  _UART2_TxByte
                  0x00b3fc                  _UART2_TxString
                  0x00b42e                  _UART2_TxData
                  0x00b46a                  _UART2_PollByte
                  0x00b49c                  __U2RXInterrupt
                  0x00b4dc                  _Flush_U2RxBuffer
                  0x00b4fe                  _Return_U2RxBuffer
                  0x00b506                  _Return_U2RxBufferCounter
                  0x00b510                  _Delay_UART2
                  0x00b52a                  _EventRTC
                  0x00b58a                  _EventIntRTC
                  0x00b5f0                  _StartTimerRTC
                  0x00b654                  _StopTimerRTC
                  0x00b68a                  _ReturnTimerRTCENDIS
                  0x00b6ca                  _IPGetHeader
                  0x00b78e                  _IPPutHeader
                  0x00b826                  _IPSetRxBuffer
                  0x00b862                  _Initialize_SPI1_Module
                  0x00b892                  _SPI1_TxByte
                  0x00b8be                  _SPI1_Tx_Only
                  0x00b8ea                  _SPI1_RxByte
                  0x00b912                  __SPI1Interrupt
                  0x00b948                  _Return_SPI1_RxBuffer
                  0x00b950                  _Return_SPI1_RxBuffer_Cnt
                  0x00b95a                  _Flush_SPI1_RxBuffer
                  0x00b97c                  ___Enable_SPI1Master_Interrupt
                  0x00b984                  ___Disable_SPI1Master_Interrupt
                  0x00b98c                  _Set_CS_LTC2439
                  0x00b998                  _Reset_CS_LTC2439
                  0x00b9a6                  _Restart_SPI1
                  0x00b9bc                  _SetEdgeActiveToIdle
                  0x00b9da                  _SetEdgeIdleToActive
                  0x00b9f8                  _EventUpdateRS485CO2Sensor
                  0x00ba4e                  _EventRS485CO2Sensor_RxUpdate
                  0x00bb66                  _Initialize_I2C1_Module
                  0x00bb84                  ___Disable_I2C1Slave_Interrupt
                  0x00bb8c                  ___Enable_I2C1Slave_Interrupt
                  0x00bb94                  ___Set_I2C1Slave_Interrupt
                  0x00bb9c                  ___Clear_I2C1Slave_Interrupt
                  0x00bba4                  _Tx_I2C1SlaveData
                  0x00bbde                  __SI2C1Interrupt
                  0x00bc84                  _ReturnI2C1_RxDataBuffer
                  0x00bc8c                  _ReturnI2C1_TxBuffer
                  0x00bc94                  _ReturnCounter_I2C1RxBuffer
                  0x00bc9e                  _ReturnCounter_I21TxBuffer
                  0x00bca8                  _Flush_I2C1RxBuffer
                  0x00bcca                  _Initialize_UART1_Module
                  0x00bcfa                  _U4_Chip_TxEnable
                  0x00bd02                  _U4_Chip_RxEnable
                  0x00bd0a                  _UART1_TxByte
                  0x00bd2e                  _UART1_TxString
                  0x00bd62                  _UART1_TxData
                  0x00bd9c                  __U1RXInterrupt
                  0x00bdd4                  _Flush_U1RxBuffer
                  0x00bdf6                  _Return_U1RxBuffer
                  0x00bdfe                  _Return_U1RxBufferCounter
                  0x00be08                  _Delay_UART1
                  0x00be22                  _AnnounceIP
                  0x00be92                  _DiscoveryTask
                  0x00bf58                  _EEPROM_Read
                  0x00bfd8                  _EEPROM_SingleWrite
                  0x00c01a                  _EEPROM_MultiWrite
                  0x00c05e                  _EEPROM_AckPoll
                  0x00c078                  _TickInit
                  0x00c0f8                  _TickGet
                  0x00c104                  _TickGetDiv256
                  0x00c12c                  _TickGetDiv64K
                  0x00c154                  _TickConvertToMilliseconds
                  0x00c178                  __T2Interrupt
                  0x00c190                  _Read_SingleEndedLTC2439
                  0x00c210                  _Parse_LTC2439Data
                  0x00c26e                  _Test_EOC
                  0x00c2a4                  _EventUpdateAlarmContactRelay
                  0x00c396                  _Timer1_Start
                  0x00c39e                  _Timer1_Stop
                  0x00c3a6                  _Initialize_Timer1_Module
                  0x00c3d6                  __T1Interrupt
                  0x00c41c                  ___Enable_Timer1_Interrupt
                  0x00c424                  ___Disable_Timer1_Interrupt
                  0x00c42c                  _retCounter1
                  0x00c434                  _Timer3_Start
                  0x00c43c                  _Timer3_Stop
                  0x00c444                  _Initialize_Timer3_Module
                  0x00c474                  __T3Interrupt
                  0x00c496                  _Initialize_Timer4_Module
                  0x00c4b8                  _ICMPProcess
                  0x00c524                  _EventUVRunTime
                  0x00c530                  _EventUVLamp
                  0x00c57a                  _DelayMs
                  0x00c5a4                  _Delay10us
                  0x00c5d0                  _Initialize_ICN_Module
                  0x00c5ec                  __CNInterrupt
                  0x00c604                  ___Enable_CN_Interrupt
                  0x00c60c                  ___Disable_CN_Interrupt
                  0x00c614                  _EventUpdateBuzzer
                  0x00c620                  _EventReadACFreq
                  0x00c62a                  _EventUpdateFailSafeRelay
                  0x00c634                  _EventUSB

External Symbols in Program Memory (by name):

                  0x008b12                  _ARPInit
                  0x008d20                  _ARPIsResolved
                  0x008b58                  _ARPProcess
                  0x008c54                  _ARPResolve
                  0x008a60                  _ARPSendPkt
                  0x00be22                  _AnnounceIP
                  0x0009aa                  _CLSRegister
                  0x008034                  _CO2Alarm_Update
                  0x0080e6                  _CO2_SolenoidSystem
                  0x007a66                  _CalcCRC16
                  0x00344a                  _CalcIPBufferChecksum
                  0x006eaa                  _CalcIPChecksum
                  0x0081be                  _CalibrateAnalogOut
                  0x009fea                  _Calibrate_O2RS485
                  0x00807e                  _ClearCO2ALarm
                  0x0090b8                  _ClearO2Alarm
                  0x00894a                  _ClearRHALarm
                  0x00563e                  _ClearTempALarm
                  0x008554                  _CompileDAC_Data
                  0x006414                  _CompileRxBufferToFrame
                  0x00a7b6                  _CompileStringTo_S35390_RT1Data
                  0x0059f0                  _DHCPDisable
                  0x005a0a                  _DHCPEnable
                  0x0059b4                  _DHCPInit
                  0x005a36                  _DHCPIsBound
                  0x005a1e                  _DHCPIsEnabled
                  0x005a62                  _DHCPIsServerDetected
                  0x005a44                  _DHCPStateChanged
                  0x005aa8                  _DHCPTask
                  0x005a72                  _DHCPTempIPAddr
                  0x00c5a4                  _Delay10us
                  0x00c57a                  _DelayMs
                  0x00be08                  _Delay_UART1
                  0x00b510                  _Delay_UART2
                  0x007a36                  _Delay_uS
                  0x009650                  _Disable_AnalogMux
                  0x00be92                  _DiscoveryTask
                  0x0040d8                  _DisplayIPValue
                  0x00c05e                  _EEPROM_AckPoll
                  0x00c01a                  _EEPROM_MultiWrite
                  0x00bf58                  _EEPROM_Read
                  0x00bfd8                  _EEPROM_SingleWrite
                  0x00963e                  _Enable_AnalogMux
                  0x005796                  _EventColdStartUp
                  0x00a506                  _EventDoor
                  0x00956c                  _EventEMLock
                  0x005686                  _EventFanDeconOff
                  0x005654                  _EventFanDeconOn
                  0x00b58a                  _EventIntRTC
                  0x0056ea                  _EventPumpChamberOff
                  0x0056b8                  _EventPumpChamberOn
                  0x00ba4e                  _EventRS485CO2Sensor_RxUpdate
                  0x00b52a                  _EventRTC
                  0x00c620                  _EventReadACFreq
                  0x0046c2                  _EventSelfCalibLTC2439AIN
                  0x008a2a                  _EventSolenoidRHControlOff
                  0x008a36                  _EventSolenoidRHControlOn
                  0x003bc4                  _EventTCPIP
                  0x00a5ac                  _EventThermostat
                  0x00c634                  _EventUSB
                  0x00c530                  _EventUVLamp
                  0x00c524                  _EventUVRunTime
                  0x00c2a4                  _EventUpdateAlarmContactRelay
                  0x00c614                  _EventUpdateBuzzer
                  0x007d06                  _EventUpdateCO2PIControl
                  0x00a38c                  _EventUpdateDigitalSensors
                  0x00c62a                  _EventUpdateFailSafeRelay
                  0x008e46                  _EventUpdateO2PIControl
                  0x008634                  _EventUpdateRHPIControl
                  0x00b9f8                  _EventUpdateRS485CO2Sensor
                  0x00a004                  _EventUpdateRS485O2Sensor
                  0x00a03c                  _EventUpdateRS485O2Sensor_RxUpdate
                  0x00509a                  _EventUpdateTempPIControl
                  0x006176                  _EventUpdateUTI_Communication
                  0x0049f6                  _EventUpdate_Battchannel
                  0x004926                  _EventUpdate_IRCO2channel
                  0x0047e8                  _EventUpdate_NTCchannel
                  0x004aa6                  _EventUpdate_Opt2channel
                  0x004c10                  _EventUpdate_Opt3channel
                  0x004720                  _EventUpdate_PT100channel
                  0x004b46                  _EventUpdate_RHchannel
                  0x004888                  _EventUpdate_TCCO2channel
                  0x00a5e2                  _EventWaterLevel
                  0x00a09a                  _EventWriteRS485O2Sensor
                  0x0081a2                  _Event_CO2_BackSol_Off
                  0x008186                  _Event_CO2_BackSol_On
                  0x00816a                  _Event_CO2_MainSol_Off
                  0x00814e                  _Event_CO2_MainSol_On
                  0x005770                  _Event_Control_Disabled
                  0x00574e                  _Event_Control_Enabled
                  0x0066fe                  _Event_Int_I2C_Write_Reg
                  0x0091dc                  _Event_O2_BackSol_Off
                  0x0091c0                  _Event_O2_BackSol_On
                  0x0091a4                  _Event_O2_MainSol_Off
                  0x009188                  _Event_O2_MainSol_On
                  0x008960                  _Event_RH_Control
                  0x0089ca                  _Event_RH_Control_Disabled
                  0x0089b8                  _Event_RH_Control_Enabled
                  0x00899e                  _Event_RH_Control_Off
                  0x005948                  _Event_Temp_Supervisory
                  0x0095a0                  _Exp_FailSafe_Relay_Off
                  0x00958e                  _Exp_FailSafe_Relay_On
                  0x00b116                  _FLASH_ByteProgram
                  0x00b026                  _FLASH_ChipErase
                  0x00b15a                  _FLASH_MultiByteProgram
                  0x00b09c                  _FLASH_Read
                  0x00b046                  _FLASH_ReadStatusReg
                  0x00afda                  _FLASH_SectorErase
                  0x00afa8                  _FLASH_SendData
                  0x00afc8                  _FLASH_SendStatusCmmd
                  0x00b07a                  _FLASH_WriteStatusReg
                  0x0095c4                  _FailSafe_Relay_Off
                  0x0095b2                  _FailSafe_Relay_On
                  0x00780e                  _FloatToString_4Pt2Dec
                  0x0066d4                  _Flush_I2C1FrameBuff
                  0x00bca8                  _Flush_I2C1RxBuffer
                  0x00af56                  _Flush_I2C3RxBuffer
                  0x00b95a                  _Flush_SPI1_RxBuffer
                  0x00bdd4                  _Flush_U1RxBuffer
                  0x00b4dc                  _Flush_U2RxBuffer
                  0x006f58                  _FormatNetBIOSName
                  0x0069da                  _GenerateRandomDWORD
                  0x003baa                  _GetCLKOUT
                  0x004e54                  _GetIRCO2
                  0x004e80                  _GetNTCtemp
                  0x004ec8                  _GetO2
                  0x004ea4                  _GetPT100temp
                  0x004f1a                  _GetRH
                  0x004e02                  _GetTCCO2
                  0x004d1c                  _GetValue_2points
                  0x004cc0                  _GetValue_Slope
                  0x00af30                  _I2C23Master_Poll_Slave
                  0x00af9c                  _I2C3_Close
                  0x00adee                  _I2C3_Idle_Bus
                  0x00ae4e                  _I2C3_Is_AckBit
                  0x00aeba                  _I2C3_MasterReceive_Enable
                  0x00af90                  _I2C3_Open
                  0x00ae00                  _I2C3_REstartBit
                  0x00aef8                  _I2C3_Receive_Byte
                  0x00ae6a                  _I2C3_Send_Ack
                  0x00aec2                  _I2C3_Send_Byte
                  0x00ae7e                  _I2C3_Send_NAck
                  0x00ade6                  _I2C3_startBit
                  0x00ae10                  _I2C3_stopBit
                  0x00c4b8                  _ICMPProcess
                  0x00b6ca                  _IPGetHeader
                  0x00b78e                  _IPPutHeader
                  0x00b826                  _IPSetRxBuffer
                  0x003c6e                  _InitAppConfig
                  0x0084b2                  _InitializeAnalogOut
                  0x00bb66                  _Initialize_I2C1_Module
                  0x00adba                  _Initialize_I2C3_Module
                  0x00c5d0                  _Initialize_ICN_Module
                  0x009fcc                  _Initialize_O2RS485
                  0x00a8c8                  _Initialize_OC_Module
                  0x00b862                  _Initialize_SPI1_Module
                  0x00c3a6                  _Initialize_Timer1_Module
                  0x00c444                  _Initialize_Timer3_Module
                  0x00c496                  _Initialize_Timer4_Module
                  0x00bcca                  _Initialize_UART1_Module
                  0x00b364                  _Initialize_UART2_Module
                  0x006184                  _Is_I2C1_FrameData_Valid
                  0x00696c                  _LFSRRand
                  0x00692c                  _LFSRSeedRand
                  0x0033f2                  _MACCalcRxChecksum
                  0x00305c                  _MACDiscardRx
                  0x00324c                  _MACFlush
                  0x0036c8                  _MACGet
                  0x0036fa                  _MACGetArray
                  0x003090                  _MACGetFreeRxSize
                  0x003118                  _MACGetHeader
                  0x002f10                  _MACInit
                  0x003030                  _MACIsLinked
                  0x0036b0                  _MACIsMemCopyDone
                  0x003044                  _MACIsTxReady
                  0x0034fe                  _MACMemCopyAsync
                  0x003b46                  _MACPowerDown
                  0x003b74                  _MACPowerUp
                  0x0037d4                  _MACPut
                  0x00380c                  _MACPutArray
                  0x0031f8                  _MACPutHeader
                  0x0033c4                  _MACSetReadPtr
                  0x003368                  _MACSetReadPtrInRx
                  0x003396                  _MACSetWritePtr
                  0x004f46                  _NTCLookUpTable
                  0x009072                  _O2Alarm_Update
                  0x009120                  _O2_SolenoidSystem
                  0x0093fa                  _Output_Manual_Control
                  0x005008                  _PT100LookUpTable
                  0x00c210                  _Parse_LTC2439Data
                  0x007af0                  _Power
                  0x004406                  _ProcessModBus_TCPIP
                  0x0061b6                  _Process_I2C1_FrameData
                  0x0061d6                  _Process_I2C1_ReadFunction
                  0x0062d2                  _Process_I2C1_WriteFunction
                  0x004448                  _Process_ModbusTCP_ReadFunction
                  0x0045a6                  _Process_ModbusTCP_WriteFunction
                  0x008904                  _RHAlarm_Update
                  0x0089de                  _RH_ControlWithNTC
                  0x0089f6                  _RH_ControlWithRHSensor
                  0x00a11e                  _RS485O2SensorCmd
                  0x00a1b6                  _RS485O2_ProcessReadFunc
                  0x00a248                  _RS485O2_ProcessWriteFunc
                  0x00a160                  _RS485_ProcessFrame
                  0x005894                  _RTCEventPumpChamberOff
                  0x005814                  _RTCEventPumpChamberOn
                  0x0039c4                  _ReadPHYReg
                  0x006498                  _ReadShakerRegisterFromEEPROM
                  0x00c190                  _Read_SingleEndedLTC2439
                  0x00b998                  _Reset_CS_LTC2439
                  0x00b9a6                  _Restart_SPI1
                  0x009b4c                  _RetMainEventENDIS
                  0x009b10                  _RetMainEventType
                  0x007d5a                  _Ret_CO2_PIDcalculation
                  0x008e9e                  _Ret_O2_PIDcalculation
                  0x00865a                  _Ret_RH_PIDcalculation
                  0x005248                  _Ret_T_PIDcalculation
                  0x00a35c                  _ReturnCO2Tank_1_PSW
                  0x00a36c                  _ReturnCO2Tank_2_PSW
                  0x00bc9e                  _ReturnCounter_I21TxBuffer
                  0x00bc94                  _ReturnCounter_I2C1RxBuffer
                  0x00a330                  _ReturnDoor_SW
                  0x009c52                  _ReturnFlag
                  0x00bc84                  _ReturnI2C1_RxDataBuffer
                  0x00bc8c                  _ReturnI2C1_TxBuffer
                  0x00a312                  _ReturnO2N2Tank_1_PSW
                  0x00a320                  _ReturnO2N2Tank_2_PSW
                  0x00a306                  _ReturnRefrigerant_PSW
                  0x00a350                  _ReturnSMPSFailure_Detection
                  0x00a340                  _ReturnThermostat_SW
                  0x00b68a                  _ReturnTimerRTCENDIS
                  0x00a37c                  _ReturnWaterLevelSensor
                  0x003c5e                  _Return_APPPage_Pointer
                  0x00af78                  _Return_I2C3RxBuffer
                  0x003c66                  _Return_NVMPage_Pointer
                  0x00b948                  _Return_SPI1_RxBuffer
                  0x00b950                  _Return_SPI1_RxBuffer_Cnt
                  0x00bdf6                  _Return_U1RxBuffer
                  0x00bdfe                  _Return_U1RxBufferCounter
                  0x00b4fe                  _Return_U2RxBuffer
                  0x00b506                  _Return_U2RxBufferCounter
                  0x00998e                  _RunBackGroundEvents
                  0x00991a                  _RunForeGroundEvents
                  0x007d46                  _Run_PID_CO2Injection
                  0x0050dc                  _Run_PID_Heater
                  0x008e8a                  _Run_PID_O2Injection
                  0x00a706                  _S35390_ConvertRTData
                  0x00b8ea                  _SPI1_RxByte
                  0x00b892                  _SPI1_TxByte
                  0x00b8be                  _SPI1_Tx_Only
                  0x003e1a                  _SaveAppConfig
                  0x006344                  _SendException_ReadFunction
                  0x0063ac                  _SendException_WriteFunction
                  0x00571c                  _Send_DataToPC
                  0x003b94                  _SetCLKOUT
                  0x00523a                  _SetCOBias
                  0x00b9bc                  _SetEdgeActiveToIdle
                  0x00b9da                  _SetEdgeIdleToActive
                  0x009c64                  _SetFlag
                  0x009bde                  _SetIntDrivenEventENDIS
                  0x009c18                  _SetIntDrivenEventFlag
                  0x009a9c                  _SetMainEventENDIS
                  0x009a28                  _SetMainEventPeriod
                  0x009a62                  _SetMainEventRunningTimer
                  0x009ad6                  _SetMainEventType
                  0x0096e6                  _SetOutPut
                  0x0095d6                  _Set_Analog_Mux
                  0x00b98c                  _Set_CS_LTC2439
                  0x009348                  _Set_DeconMode
                  0x0093b8                  _Set_DeconStopMode
                  0x0092ac                  _Set_FactoryMode
                  0x0092cc                  _Set_NormalMode
                  0x007bf2                  _SortWordBufferAsc
                  0x00adb2                  _StackApplications
                  0x00ab82                  _StackInit
                  0x00abb4                  _StackTask
                  0x009b88                  _StartONCEMainEvent
                  0x00b5f0                  _StartTimerRTC
                  0x00b654                  _StopTimerRTC
                  0x005220                  _Stop_Door_Heater
                  0x009fde                  _Stop_O2RS485
                  0x007d50                  _Stop_PID_CO2Injection
                  0x0051fe                  _Stop_PID_Heater
                  0x008e94                  _Stop_PID_O2Injection
                  0x006ad0                  _StringToIPAddress
                  0x007b88                  _StringToLONG
                  0x007b2c                  _StringToWord
                  0x008e1a                  _SwapARPPacket
                  0x002d06                  _TCPAdjustFIFOSize
                  0x0010f2                  _TCPClose
                  0x001366                  _TCPDiscard
                  0x00105a                  _TCPDisconnect
                  0x0015d4                  _TCPFindArrayEx
                  0x00185e                  _TCPFindEx
                  0x001136                  _TCPFlush
                  0x0013c2                  _TCPGet
                  0x00142a                  _TCPGetArray
                  0x00110a                  _TCPGetRemoteInfo
                  0x0014e4                  _TCPGetRxFIFOFree
                  0x001338                  _TCPGetTxFIFOFull
                  0x000e2c                  _TCPInit
                  0x001032                  _TCPIsConnected
                  0x001384                  _TCPIsGetReady
                  0x001158                  _TCPIsPutReady
                  0x000ef6                  _TCPOpen
                  0x0015bc                  _TCPPeek
                  0x001510                  _TCPPeekArray
                  0x001c5e                  _TCPProcess
                  0x0011ae                  _TCPPut
                  0x001244                  _TCPPutArray
                  0x00131c                  _TCPPutString
                  0x000cf2                  _TCPSocketInitializer
                  0x00187c                  _TCPTick
                  0x001002                  _TCPWasReset
                  0x004120                  _TPCIP_Voyager_Init_Task
                  0x0042dc                  _TPCIP_Voyager_Task
                  0x0055aa                  _TempAlarm_Update
                  0x00c26e                  _Test_EOC
                  0x00c154                  _TickConvertToMilliseconds
                  0x00c0f8                  _TickGet
                  0x00c104                  _TickGetDiv256
                  0x00c12c                  _TickGetDiv64K
                  0x00c078                  _TickInit
                  0x00c396                  _Timer1_Start
                  0x00c39e                  _Timer1_Stop
                  0x00c434                  _Timer3_Start
                  0x00c43c                  _Timer3_Stop
                  0x009662                  _TurnOffAllOutputs
                  0x0085ea                  _TxSPIData_DAC
                  0x00bba4                  _Tx_I2C1SlaveData
                  0x00bd02                  _U4_Chip_RxEnable
                  0x00bcfa                  _U4_Chip_TxEnable
                  0x00b3ca                  _U5_Chip_RxEnable
                  0x00b3bc                  _U5_Chip_TxEnable
                  0x00bd0a                  _UART1_TxByte
                  0x00bd62                  _UART1_TxData
                  0x00bd2e                  _UART1_TxString
                  0x00b46a                  _UART2_PollByte
                  0x00b3d8                  _UART2_TxByte
                  0x00b42e                  _UART2_TxData
                  0x00b3fc                  _UART2_TxString
                  0x007284                  _UDPClose
                  0x007502                  _UDPDiscard
                  0x007390                  _UDPFlush
                  0x007486                  _UDPGet
                  0x0074ba                  _UDPGetArray
                  0x00704c                  _UDPInit
                  0x007456                  _UDPIsGetReady
                  0x007262                  _UDPIsOpened
                  0x0072e0                  _UDPIsPutReady
                  0x007066                  _UDPOpenEx
                  0x00751c                  _UDPProcess
                  0x007314                  _UDPPut
                  0x007346                  _UDPPutArray
                  0x00737c                  _UDPPutString
                  0x0072ce                  _UDPSetRxBuffer
                  0x0072bc                  _UDPSetTxBuffer
                  0x007142                  _UDPTask
                  0x0084c2                  _UpdateDAC
                  0x0093ce                  _UpdateOutput
                  0x009264                  _UpdateSystemMode
                  0x0091f8                  _UpdateSystemSensor
                  0x008094                  _Update_CO2Injection_PWM
                  0x0090ce                  _Update_O2Injection_PWM
                  0x00aab2                  _Update_OC1_PWM
                  0x00aacc                  _Update_OC2_PWM
                  0x008616                  _Update_RawDAC
                  0x00aae6                  _Update_Zone1_OC3_PWM
                  0x00ab00                  _Update_Zone2_OC4_PWM
                  0x00ab1a                  _Update_Zone3_OC5_PWM
                  0x00ab34                  _Update_Zone4_OC6_PWM
                  0x00ab4e                  _Update_Zone5_OC7_PWM
                  0x00ab68                  _Update_Zone6_OC8_PWM
                  0x00771c                  _WordToString
                  0x003af6                  _WritePHYReg
                  0x00410c                  __AddressError
                  0x00c5ec                  __CNInterrupt
                  0x00035c                  __DefaultInterrupt
                  0x00af80                  __Interrupt85
                  0x00bbde                  __SI2C1Interrupt
                  0x00b912                  __SPI1Interrupt
                  0x004116                  __StackError
                  0x00c3d6                  __T1Interrupt
                  0x00c178                  __T2Interrupt
                  0x00c474                  __T3Interrupt
                  0x00bd9c                  __U1RXInterrupt
                  0x00b49c                  __U2RXInterrupt
                  0x00bb9c                  ___Clear_I2C1Slave_Interrupt
                  0x00c60c                  ___Disable_CN_Interrupt
                  0x00bb84                  ___Disable_I2C1Slave_Interrupt
                  0x00b984                  ___Disable_SPI1Master_Interrupt
                  0x00c424                  ___Disable_Timer1_Interrupt
                  0x00c604                  ___Enable_CN_Interrupt
                  0x00bb8c                  ___Enable_I2C1Slave_Interrupt
                  0x00b97c                  ___Enable_SPI1Master_Interrupt
                  0x00c41c                  ___Enable_Timer1_Interrupt
                  0x00bb94                  ___Set_I2C1Slave_Interrupt
                  0x00b358                  ___UserGDE
                  0x00b34c                  ___UserGIE
                  0x000362                  ___addsf3
                  0x00084a                  ___divdi3
                  0x00041c                  ___divsf3
                  0x0004a0                  ___divsi3
                  0x0004be                  ___eqsf2
                  0x0004c6                  ___fixsfsi
                  0x000508                  ___fixunssfsi
                  0x00053e                  ___floatsisf
                  0x0004c2                  ___gesf2
                  0x0004c2                  ___gtsf2
                  0x0004be                  ___lesf2
                  0x0004be                  ___ltsf2
                  0x0008b6                  ___moddi3
                  0x00063a                  ___modsi3
                  0x000658                  ___mulsf3
                  0x000360                  ___subsf3
                  0x000834                  ___udivdi3
                  0x00070c                  ___udivmoddi3
                  0x0006c0                  ___udivsi3
                  0x000842                  ___umoddi3
                  0x0006e0                  ___umodsi3
                  0x00022e                  __data_init
                  0x00022e                  __data_init_extended
                  0x00061a                  __fPropagateNaN
                  0x00062c                  __fbopExit
                  0x000634                  __fbopReturnNaN
                  0x00091e                  __fcompare
                  0x000594                  __fpack
                  0x0005e0                  __funpack
                  0x00060a                  __funpack2
                  0x000222                  __psv_init
                  0x000200                  __resetPRI
                  0x006d4c                  _btohexa_high
                  0x006d74                  _btohexa_low
                  0x006cd6                  _hexatob
                  0x00b18a                  _main
                  0x000954                  _memcpy
                  0x000962                  _memset
                  0x00c42c                  _retCounter1
                  0x00a2b8                  _returnO2RS485RegIndex
                  0x00a8aa                  _s35390_FlushBuffer
                  0x00a7e6                  _s35390_GetDate_And_Time
                  0x00a6ce                  _s35390_Initialize
                  0x00a60a                  _s35390_Read
                  0x00a874                  _s35390_SetDate
                  0x00a842                  _s35390_SetTime
                  0x00a676                  _s35390_Write
                  0x007ad0                  _strLen
                  0x006d9a                  _stricmppgm2ram
                  0x0076ec                  _stringCat
                  0x0076c8                  _stringCopy
                  0x000970                  _strlen
                  0x006fa0                  _strnchr
                  0x00097c                  _strncpy
                  0x006fe6                  _strncpy_m
                  0x006f1e                  _strupr
                  0x006e4c                  _swapl
                  0x006e32                  _swaps
                  0x006c58                  _uitoa

Memory Configuration

Name             Origin             Length             Attributes
data             0x000800           0x018000           a !xr
reset            0x000000           0x000004  
ivt              0x000004           0x0000fc  
_reserved        0x000100           0x000004  
aivt             0x000104           0x0000fc  
program          0x000200           0x02a9f6           xr
CONFIG4          0x02abf8           0x000002  
CONFIG3          0x02abfa           0x000002  
CONFIG2          0x02abfc           0x000002  
CONFIG1          0x02abfe           0x000002  
*default*        0x000000           0xffffffff  

Linker script and memory map

LOAD build/default/production/_ext/1472/RH_Control.o
LOAD build/default/production/_ext/1472/TempControl.o
LOAD build/default/production/_ext/1472/AC_Hz.o
LOAD build/default/production/_ext/1472/AlarmContactRelay.o
LOAD build/default/production/_ext/1472/CO2_Control.o
LOAD build/default/production/_ext/1472/EventRTC.o
LOAD build/default/production/_ext/1472/EventScheduler.o
LOAD build/default/production/_ext/1472/EventTCPIP.o
LOAD build/default/production/_ext/1472/FailSafeRelay.o
LOAD build/default/production/_ext/1472/O2_Control.o
LOAD build/default/production/_ext/1472/OMB_Mode.o
LOAD build/default/production/_ext/1472/RTC_S35390.o
LOAD build/default/production/_ext/1472/OMB_Output.o
LOAD build/default/production/_ext/1472/EventBuzzer.o
LOAD build/default/production/_ext/1472/OMBLTC2439_Inputs.o
LOAD build/default/production/_ext/1472/OMB_UTI_Comm.o
LOAD build/default/production/_ext/1472/O2_RS485.o
LOAD build/default/production/_ext/1472/OMB_DigitalInputs.o
LOAD build/default/production/_ext/1472/USB.o
LOAD build/default/production/_ext/1472/Event_UV.o
LOAD build/default/production/_ext/1472/EEPROM_24AA1025.o
LOAD build/default/production/_ext/1472/CO2_RS485.o
LOAD build/default/production/_ext/1472/OMB_AnalogOutput.o
LOAD build/default/production/_ext/1472/p24FJ256DA210_UART2.o
LOAD build/default/production/_ext/1472/p24FJ256DA210_UART1.o
LOAD build/default/production/_ext/1472/p24FJ256DA210_Timer1.o
LOAD build/default/production/_ext/1472/p24FJ256DA210_I2C3.o
LOAD build/default/production/_ext/1472/p24FJ256DA210_SPI1.o
LOAD build/default/production/_ext/1472/LTC2439.o
LOAD build/default/production/_ext/1472/p24FJ256DA210_I2C1.o
LOAD build/default/production/_ext/1472/p24FJ256DA210_ICN.o
LOAD build/default/production/_ext/1472/p24FJ256DA210_OCx.o
LOAD build/default/production/_ext/1472/p24FJ256DA210_Timer3.o
LOAD build/default/production/_ext/1472/Flash.o
LOAD build/default/production/_ext/867694782/ENC28J60.o
LOAD build/default/production/_ext/867694782/Delay.o
LOAD build/default/production/_ext/867694782/StackTsk.o
LOAD build/default/production/_ext/867694782/Helpers.o
LOAD build/default/production/_ext/867694782/Announce.o
LOAD build/default/production/_ext/867694782/UDP.o
LOAD build/default/production/_ext/867694782/ARP.o
LOAD build/default/production/_ext/867694782/DHCP.o
LOAD build/default/production/_ext/867694782/Tick.o
LOAD build/default/production/_ext/867694782/IP.o
LOAD build/default/production/_ext/867694782/ICMP.o
LOAD build/default/production/_ext/867694782/TCP.o
LOAD build/default/production/_ext/1472/main.o
LOAD build/default/production/_ext/1472/General.o
                    0x0001                  __MPLAB_BUILD = 0x1
LOAD c:/program files (x86)/microchip/mplabc30/v3.30/bin/bin/../../lib/PIC24F\libpPIC24Fxxx-elf.a
                    0x2abf8                  __CONFIG4 = 0x2abf8
                    0x2abfa                  __CONFIG3 = 0x2abfa
                    0x2abfc                  __CONFIG2 = 0x2abfc
                    0x2abfe                  __CONFIG1 = 0x2abfe
                    0x0004                  __IVT_BASE = 0x4
                    0x0104                  __AIVT_BASE = 0x104
                    0x0800                  __DATA_BASE = 0x800
                    0x18000                  __DATA_LENGTH = 0x18000
                    0x0200                  __CODE_BASE = 0x200
                    0x2a9f8                  __CODE_LENGTH = 0x2a9f8

.reset            0x000000          0x4
                  0x000000          0x2 SHORT 0x200 ABSOLUTE (__reset)
                  0x000001          0x2 SHORT 0x4
                  0x000002          0x2 SHORT 0x0 ((ABSOLUTE (__reset) >> 0x10) & 0x7f)
                  0x000003          0x2 SHORT 0x0

.text             0x000200        0x7aa
 *(.init)
 .init            0x000200         0x2e c:/program files (x86)/microchip/mplabc30/v3.30/bin/bin/../../lib\libpic30-elf.a(crt0_extended.o)
                  0x000200                  __resetPRI
                  0x000200                  __reset
                  0x000222                  __psv_init
 .init            0x00022e         0x9a c:/program files (x86)/microchip/mplabc30/v3.30/bin/bin/../../lib\libpic30-elf.a(data_init_extended.o)
                  0x00022e                  __data_init
                  0x00022e                  __data_init_extended
 *(.user_init)
 *(.handle)
 .handle          0x0002c8         0x94 jump_table
 *(.isr*)
 .isr             0x00035c          0x4 default_isr
                  0x00035c                  __DefaultInterrupt
 *(.libc)
 *(.libm)
 *(.libdsp)
 *(.lib*)
 .libm.subsf3     0x000360         0xbc c:/program files (x86)/microchip/mplabc30/v3.30/bin/bin/../../lib\libm-elf.a(addsf3.eo)
                  0x000360                  ___subsf3
                  0x000362                  ___addsf3
 .libm.divfs3     0x00041c         0x84 c:/program files (x86)/microchip/mplabc30/v3.30/bin/bin/../../lib\libm-elf.a(divsf3.eo)
                  0x00041c                  ___divsf3
 .libm.divsi3     0x0004a0         0x1e c:/program files (x86)/microchip/mplabc30/v3.30/bin/bin/../../lib\libm-elf.a(divsi3.eo)
                  0x0004a0                  ___divsi3
 .libm.eqsf2      0x0004be          0x4 c:/program files (x86)/microchip/mplabc30/v3.30/bin/bin/../../lib\libm-elf.a(feqltle.eo)
                  0x0004be                  ___eqsf2
                  0x0004be                  ___ltsf2
                  0x0004be                  ___lesf2
 .libm.gtsf2      0x0004c2          0x4 c:/program files (x86)/microchip/mplabc30/v3.30/bin/bin/../../lib\libm-elf.a(fgtge.eo)
                  0x0004c2                  ___gesf2
                  0x0004c2                  ___gtsf2
 .libm.fixsfsi    0x0004c6         0x42 c:/program files (x86)/microchip/mplabc30/v3.30/bin/bin/../../lib\libm-elf.a(fixsfsi.eo)
                  0x0004c6                  _(float, int, long long, short, float, short, int)
 .libm.fixunssfsi
                  0x000508         0x36 c:/program files (x86)/microchip/mplabc30/v3.30/bin/bin/../../lib\libm-elf.a(fixunssfsi.eo)
                  0x000508                  ___fixunssfsi
 .libm.floatsisf
                  0x00053e         0x56 c:/program files (x86)/microchip/mplabc30/v3.30/bin/bin/../../lib\libm-elf.a(floatsisf.eo)
                  0x00053e                  ___floatsisf
 .libm.fpack      0x000594         0x4c c:/program files (x86)/microchip/mplabc30/v3.30/bin/bin/../../lib\libm-elf.a(fpack.eo)
                  0x000594                  __fpack
 .libm.funpack    0x0005e0         0x2a c:/program files (x86)/microchip/mplabc30/v3.30/bin/bin/../../lib\libm-elf.a(funpack.eo)
                  0x0005e0                  __funpack
 .libm.funpack2
                  0x00060a         0x10 c:/program files (x86)/microchip/mplabc30/v3.30/bin/bin/../../lib\libm-elf.a(funpack2.eo)
                  0x00060a                  __funpack2
 .libm.fPropagateNaN
                  0x00061a         0x12 c:/program files (x86)/microchip/mplabc30/v3.30/bin/bin/../../lib\libm-elf.a(futil.eo)
                  0x00061a                  __fPropagateNaN
 .libm.fbobExit
                  0x00062c          0x8 c:/program files (x86)/microchip/mplabc30/v3.30/bin/bin/../../lib\libm-elf.a(futil.eo)
                  0x00062c                  __fbopExit
 .libm.fbopReturnNaN
                  0x000634          0x6 c:/program files (x86)/microchip/mplabc30/v3.30/bin/bin/../../lib\libm-elf.a(futil.eo)
                  0x000634                  __fbopReturnNaN
 .libm.modsi3     0x00063a         0x1e c:/program files (x86)/microchip/mplabc30/v3.30/bin/bin/../../lib\libm-elf.a(modsi3.eo)
                  0x00063a                  ___modsi3
 .libm.mulsf3     0x000658         0x68 c:/program files (x86)/microchip/mplabc30/v3.30/bin/bin/../../lib\libm-elf.a(mulsf3.eo)
                  0x000658                  ___mulsf3
 .libm.udivsi3    0x0006c0         0x20 c:/program files (x86)/microchip/mplabc30/v3.30/bin/bin/../../lib\libm-elf.a(udivsi3.eo)
                  0x0006c0                  ___udivsi3
 .libm.umodsi3    0x0006e0          0x6 c:/program files (x86)/microchip/mplabc30/v3.30/bin/bin/../../lib\libm-elf.a(umodsi3.eo)
                  0x0006e0                  ___umodsi3
 .libm.__PplusBdi
                  0x0006e6         0x26 c:/program files (x86)/microchip/mplabc30/v3.30/bin/bin/../../lib\libm-elf.a(divmoddi3.eo)
 .libm.__udivmoddi3
                  0x00070c        0x128 c:/program files (x86)/microchip/mplabc30/v3.30/bin/bin/../../lib\libm-elf.a(divmoddi3.eo)
                  0x00070c                  ___udivmoddi3
 .libm.__udivdi3
                  0x000834          0xe c:/program files (x86)/microchip/mplabc30/v3.30/bin/bin/../../lib\libm-elf.a(divmoddi3.eo)
                  0x000834                  ___udivdi3
 .libm.__umoddi3
                  0x000842          0x8 c:/program files (x86)/microchip/mplabc30/v3.30/bin/bin/../../lib\libm-elf.a(divmoddi3.eo)
                  0x000842                  ___umoddi3
 .libm.__divdi3
                  0x00084a         0x6c c:/program files (x86)/microchip/mplabc30/v3.30/bin/bin/../../lib\libm-elf.a(divmoddi3.eo)
                  0x00084a                  ___divdi3
 .libm.__moddi3
                  0x0008b6         0x68 c:/program files (x86)/microchip/mplabc30/v3.30/bin/bin/../../lib\libm-elf.a(divmoddi3.eo)
                  0x0008b6                  ___moddi3
 .libm.fcompare
                  0x00091e         0x36 c:/program files (x86)/microchip/mplabc30/v3.30/bin/bin/../../lib\libm-elf.a(fcompare.eo)
                  0x00091e                  __fcompare
 .libc.memcpy     0x000954          0xe c:/program files (x86)/microchip/mplabc30/v3.30/bin/bin/../../lib\libc-elf.a(memcpy.XXeo)
                  0x000954                  _memcpy
 .libc.memset     0x000962          0xe c:/program files (x86)/microchip/mplabc30/v3.30/bin/bin/../../lib\libc-elf.a(memset.XXeo)
                  0x000962                  _memset
 .libc.strlen     0x000970          0xc c:/program files (x86)/microchip/mplabc30/v3.30/bin/bin/../../lib\libc-elf.a(strlen.XXeo)
                  0x000970                  _strlen
 .libc.strncpy    0x00097c         0x2e c:/program files (x86)/microchip/mplabc30/v3.30/bin/bin/../../lib\libc-elf.a(strncpy.XXeo)
                  0x00097c                  _strncpy

usercode
 *(usercode)

__CONFIG4
 *(__CONFIG4.sec*)

__CONFIG3         0x02abfa          0x2
 *(__CONFIG3.sec*)
 __CONFIG3.sec    0x02abfa          0x2 build/default/production/_ext/1472/main.o

__CONFIG2         0x02abfc          0x2
 *(__CONFIG2.sec*)
 __CONFIG2.sec    0x02abfc          0x2 build/default/production/_ext/1472/main.o

__CONFIG1         0x02abfe          0x2
 *(__CONFIG1.sec*)
 __CONFIG1.sec    0x02abfe          0x2 build/default/production/_ext/1472/main.o

.comment
 *(.comment)

.debug_info       0x000000      0x2171f
 *(.debug_info)
 .debug_info      0x000000        0x638 build/default/production/_ext/1472/RH_Control.o
 .debug_info      0x000638        0x945 build/default/production/_ext/1472/TempControl.o
 .debug_info      0x000f7d        0x1af build/default/production/_ext/1472/AC_Hz.o
 .debug_info      0x00112c        0x2a2 build/default/production/_ext/1472/AlarmContactRelay.o
 .debug_info      0x0013ce        0x665 build/default/production/_ext/1472/CO2_Control.o
 .debug_info      0x001a33        0x38a build/default/production/_ext/1472/EventRTC.o
 .debug_info      0x001dbd        0x6df build/default/production/_ext/1472/EventScheduler.o
 .debug_info      0x00249c       0x14d4 build/default/production/_ext/1472/EventTCPIP.o
 .debug_info      0x003970        0x1c0 build/default/production/_ext/1472/FailSafeRelay.o
 .debug_info      0x003b30        0x5ef build/default/production/_ext/1472/O2_Control.o
 .debug_info      0x00411f        0x42c build/default/production/_ext/1472/OMB_Mode.o
 .debug_info      0x00454b        0x50d build/default/production/_ext/1472/RTC_S35390.o
 .debug_info      0x004a58        0x987 build/default/production/_ext/1472/OMB_Output.o
 .debug_info      0x0053df        0x1c0 build/default/production/_ext/1472/EventBuzzer.o
 .debug_info      0x00559f        0xf79 build/default/production/_ext/1472/OMBLTC2439_Inputs.o
 .debug_info      0x006518       0x1374 build/default/production/_ext/1472/OMB_UTI_Comm.o
 .debug_info      0x00788c        0x6c9 build/default/production/_ext/1472/O2_RS485.o
 .debug_info      0x007f55        0x9ac build/default/production/_ext/1472/OMB_DigitalInputs.o
 .debug_info      0x008901        0x1a6 build/default/production/_ext/1472/USB.o
 .debug_info      0x008aa7        0x267 build/default/production/_ext/1472/Event_UV.o
 .debug_info      0x008d0e        0x358 build/default/production/_ext/1472/EEPROM_24AA1025.o
 .debug_info      0x009066        0x2fc build/default/production/_ext/1472/CO2_RS485.o
 .debug_info      0x009362        0x552 build/default/production/_ext/1472/OMB_AnalogOutput.o
 .debug_info      0x0098b4        0xea9 build/default/production/_ext/1472/p24FJ256DA210_UART2.o
 .debug_info      0x00a75d        0xb29 build/default/production/_ext/1472/p24FJ256DA210_UART1.o
 .debug_info      0x00b286        0x81d build/default/production/_ext/1472/p24FJ256DA210_Timer1.o
 .debug_info      0x00baa3        0x971 build/default/production/_ext/1472/p24FJ256DA210_I2C3.o
 .debug_info      0x00c414        0xfc6 build/default/production/_ext/1472/p24FJ256DA210_SPI1.o
 .debug_info      0x00d3da        0x3f3 build/default/production/_ext/1472/LTC2439.o
 .debug_info      0x00d7cd        0xcfd build/default/production/_ext/1472/p24FJ256DA210_I2C1.o
 .debug_info      0x00e4ca        0xb02 build/default/production/_ext/1472/p24FJ256DA210_ICN.o
 .debug_info      0x00efcc       0x20bf build/default/production/_ext/1472/p24FJ256DA210_OCx.o
 .debug_info      0x01108b        0x8de build/default/production/_ext/1472/p24FJ256DA210_Timer3.o
 .debug_info      0x011969        0x61c build/default/production/_ext/1472/Flash.o
 .debug_info      0x011f85       0x2db4 build/default/production/_ext/867694782/ENC28J60.o
 .debug_info      0x014d39        0x221 build/default/production/_ext/867694782/Delay.o
 .debug_info      0x014f5a        0xa6b build/default/production/_ext/867694782/StackTsk.o
 .debug_info      0x0159c5        0xf58 build/default/production/_ext/867694782/Helpers.o
 .debug_info      0x01691d        0xb6f build/default/production/_ext/867694782/Announce.o
 .debug_info      0x01748c       0x11ed build/default/production/_ext/867694782/UDP.o
 .debug_info      0x018679        0xbaf build/default/production/_ext/867694782/ARP.o
 .debug_info      0x019228       0x1126 build/default/production/_ext/867694782/DHCP.o
 .debug_info      0x01a34e        0x854 build/default/production/_ext/867694782/Tick.o
 .debug_info      0x01aba2        0xb62 build/default/production/_ext/867694782/IP.o
 .debug_info      0x01b704        0x781 build/default/production/_ext/867694782/ICMP.o
 .debug_info      0x01be85       0x21f5 build/default/production/_ext/867694782/TCP.o
 .debug_info      0x01e07a       0x311f build/default/production/_ext/1472/main.o
 .debug_info      0x021199        0x586 build/default/production/_ext/1472/General.o
 *(.gnu.linkonce.wi.*)

.debug_abbrev     0x000000       0x35d5
 *(.debug_abbrev)
 .debug_abbrev    0x000000         0xdf build/default/production/_ext/1472/RH_Control.o
 .debug_abbrev    0x0000df        0x107 build/default/production/_ext/1472/TempControl.o
 .debug_abbrev    0x0001e6         0x5b build/default/production/_ext/1472/AC_Hz.o
 .debug_abbrev    0x000241         0x5b build/default/production/_ext/1472/AlarmContactRelay.o
 .debug_abbrev    0x00029c         0xd2 build/default/production/_ext/1472/CO2_Control.o
 .debug_abbrev    0x00036e         0xf7 build/default/production/_ext/1472/EventRTC.o
 .debug_abbrev    0x000465        0x11d build/default/production/_ext/1472/EventScheduler.o
 .debug_abbrev    0x000582        0x265 build/default/production/_ext/1472/EventTCPIP.o
 .debug_abbrev    0x0007e7         0x5b build/default/production/_ext/1472/FailSafeRelay.o
 .debug_abbrev    0x000842         0xd2 build/default/production/_ext/1472/O2_Control.o
 .debug_abbrev    0x000914         0xe1 build/default/production/_ext/1472/OMB_Mode.o
 .debug_abbrev    0x0009f5         0xd5 build/default/production/_ext/1472/RTC_S35390.o
 .debug_abbrev    0x000aca         0xae build/default/production/_ext/1472/OMB_Output.o
 .debug_abbrev    0x000b78         0x5d build/default/production/_ext/1472/EventBuzzer.o
 .debug_abbrev    0x000bd5        0x102 build/default/production/_ext/1472/OMBLTC2439_Inputs.o
 .debug_abbrev    0x000cd7        0x1de build/default/production/_ext/1472/OMB_UTI_Comm.o
 .debug_abbrev    0x000eb5        0x111 build/default/production/_ext/1472/O2_RS485.o
 .debug_abbrev    0x000fc6         0xb0 build/default/production/_ext/1472/OMB_DigitalInputs.o
 .debug_abbrev    0x001076         0x5b build/default/production/_ext/1472/USB.o
 .debug_abbrev    0x0010d1         0xb1 build/default/production/_ext/1472/Event_UV.o
 .debug_abbrev    0x001182         0xdc build/default/production/_ext/1472/EEPROM_24AA1025.o
 .debug_abbrev    0x00125e         0xa9 build/default/production/_ext/1472/CO2_RS485.o
 .debug_abbrev    0x001307        0x109 build/default/production/_ext/1472/OMB_AnalogOutput.o
 .debug_abbrev    0x001410        0x12a build/default/production/_ext/1472/p24FJ256DA210_UART2.o
 .debug_abbrev    0x00153a        0x12a build/default/production/_ext/1472/p24FJ256DA210_UART1.o
 .debug_abbrev    0x001664         0xda build/default/production/_ext/1472/p24FJ256DA210_Timer1.o
 .debug_abbrev    0x00173e        0x152 build/default/production/_ext/1472/p24FJ256DA210_I2C3.o
 .debug_abbrev    0x001890        0x139 build/default/production/_ext/1472/p24FJ256DA210_SPI1.o
 .debug_abbrev    0x0019c9         0xdb build/default/production/_ext/1472/LTC2439.o
 .debug_abbrev    0x001aa4        0x11b build/default/production/_ext/1472/p24FJ256DA210_I2C1.o
 .debug_abbrev    0x001bbf         0xc3 build/default/production/_ext/1472/p24FJ256DA210_ICN.o
 .debug_abbrev    0x001c82         0xed build/default/production/_ext/1472/p24FJ256DA210_OCx.o
 .debug_abbrev    0x001d6f         0xb2 build/default/production/_ext/1472/p24FJ256DA210_Timer3.o
 .debug_abbrev    0x001e21        0x138 build/default/production/_ext/1472/Flash.o
 .debug_abbrev    0x001f59        0x2af build/default/production/_ext/867694782/ENC28J60.o
 .debug_abbrev    0x002208         0x73 build/default/production/_ext/867694782/Delay.o
 .debug_abbrev    0x00227b        0x17b build/default/production/_ext/867694782/StackTsk.o
 .debug_abbrev    0x0023f6        0x1a4 build/default/production/_ext/867694782/Helpers.o
 .debug_abbrev    0x00259a        0x175 build/default/production/_ext/867694782/Announce.o
 .debug_abbrev    0x00270f        0x263 build/default/production/_ext/867694782/UDP.o
 .debug_abbrev    0x002972        0x1d6 build/default/production/_ext/867694782/ARP.o
 .debug_abbrev    0x002b48        0x222 build/default/production/_ext/867694782/DHCP.o
 .debug_abbrev    0x002d6a        0x154 build/default/production/_ext/867694782/Tick.o
 .debug_abbrev    0x002ebe        0x1a3 build/default/production/_ext/867694782/IP.o
 .debug_abbrev    0x003061         0xfb build/default/production/_ext/867694782/ICMP.o
 .debug_abbrev    0x00315c        0x240 build/default/production/_ext/867694782/TCP.o
 .debug_abbrev    0x00339c        0x179 build/default/production/_ext/1472/main.o
 .debug_abbrev    0x003515         0xc0 build/default/production/_ext/1472/General.o

.debug_line       0x000000      0x11433
 *(.debug_line)
 .debug_line      0x000000        0x5b8 build/default/production/_ext/1472/RH_Control.o
 .debug_line      0x0005b8        0x891 build/default/production/_ext/1472/TempControl.o
 .debug_line      0x000e49        0x236 build/default/production/_ext/1472/AC_Hz.o
 .debug_line      0x00107f        0x2ca build/default/production/_ext/1472/AlarmContactRelay.o
 .debug_line      0x001349        0x54b build/default/production/_ext/1472/CO2_Control.o
 .debug_line      0x001894        0x349 build/default/production/_ext/1472/EventRTC.o
 .debug_line      0x001bdd        0x517 build/default/production/_ext/1472/EventScheduler.o
 .debug_line      0x0020f4        0x981 build/default/production/_ext/1472/EventTCPIP.o
 .debug_line      0x002a75        0x23e build/default/production/_ext/1472/FailSafeRelay.o
 .debug_line      0x002cb3        0x57a build/default/production/_ext/1472/O2_Control.o
 .debug_line      0x00322d        0x68a build/default/production/_ext/1472/OMB_Mode.o
 .debug_line      0x0038b7        0x603 build/default/production/_ext/1472/RTC_S35390.o
 .debug_line      0x003eba        0x5cb build/default/production/_ext/1472/OMB_Output.o
 .debug_line      0x004485        0x23c build/default/production/_ext/1472/EventBuzzer.o
 .debug_line      0x0046c1        0x8b2 build/default/production/_ext/1472/OMBLTC2439_Inputs.o
 .debug_line      0x004f73        0xb7c build/default/production/_ext/1472/OMB_UTI_Comm.o
 .debug_line      0x005aef        0x608 build/default/production/_ext/1472/O2_RS485.o
 .debug_line      0x0060f7        0x61a build/default/production/_ext/1472/OMB_DigitalInputs.o
 .debug_line      0x006711        0x234 build/default/production/_ext/1472/USB.o
 .debug_line      0x006945        0x299 build/default/production/_ext/1472/Event_UV.o
 .debug_line      0x006bde        0x472 build/default/production/_ext/1472/EEPROM_24AA1025.o
 .debug_line      0x007050        0x3c3 build/default/production/_ext/1472/CO2_RS485.o
 .debug_line      0x007413        0x6ac build/default/production/_ext/1472/OMB_AnalogOutput.o
 .debug_line      0x007abf        0x3d6 build/default/production/_ext/1472/p24FJ256DA210_UART2.o
 .debug_line      0x007e95        0x336 build/default/production/_ext/1472/p24FJ256DA210_UART1.o
 .debug_line      0x0081cb        0x32b build/default/production/_ext/1472/p24FJ256DA210_Timer1.o
 .debug_line      0x0084f6        0x415 build/default/production/_ext/1472/p24FJ256DA210_I2C3.o
 .debug_line      0x00890b        0x3dd build/default/production/_ext/1472/p24FJ256DA210_SPI1.o
 .debug_line      0x008ce8        0x3fe build/default/production/_ext/1472/LTC2439.o
 .debug_line      0x0090e6        0x451 build/default/production/_ext/1472/p24FJ256DA210_I2C1.o
 .debug_line      0x009537        0x194 build/default/production/_ext/1472/p24FJ256DA210_ICN.o
 .debug_line      0x0096cb        0x500 build/default/production/_ext/1472/p24FJ256DA210_OCx.o
 .debug_line      0x009bcb        0x31b build/default/production/_ext/1472/p24FJ256DA210_Timer3.o
 .debug_line      0x009ee6        0x514 build/default/production/_ext/1472/Flash.o
 .debug_line      0x00a3fa       0x110d build/default/production/_ext/867694782/ENC28J60.o
 .debug_line      0x00b507        0x20a build/default/production/_ext/867694782/Delay.o
 .debug_line      0x00b711        0x335 build/default/production/_ext/867694782/StackTsk.o
 .debug_line      0x00ba46        0x8fb build/default/production/_ext/867694782/Helpers.o
 .debug_line      0x00c341        0x315 build/default/production/_ext/867694782/Announce.o
 .debug_line      0x00c656        0x837 build/default/production/_ext/867694782/UDP.o
 .debug_line      0x00ce8d        0x443 build/default/production/_ext/867694782/ARP.o
 .debug_line      0x00d2d0        0xa0f build/default/production/_ext/867694782/DHCP.o
 .debug_line      0x00dcdf        0x341 build/default/production/_ext/867694782/Tick.o
 .debug_line      0x00e020        0x30f build/default/production/_ext/867694782/IP.o
 .debug_line      0x00e32f        0x239 build/default/production/_ext/867694782/ICMP.o
 .debug_line      0x00e568       0x232c build/default/production/_ext/867694782/TCP.o
 .debug_line      0x010894        0x5cb build/default/production/_ext/1472/main.o
 .debug_line      0x010e5f        0x5d4 build/default/production/_ext/1472/General.o

.debug_frame      0x000000       0x1ff0
 *(.debug_frame)
 .debug_frame     0x000000         0xd7 build/default/production/_ext/1472/RH_Control.o
 .debug_frame     0x0000d7        0x147 build/default/production/_ext/1472/TempControl.o
 .debug_frame     0x00021e         0x27 build/default/production/_ext/1472/AC_Hz.o
 .debug_frame     0x000245         0x27 build/default/production/_ext/1472/AlarmContactRelay.o
 .debug_frame     0x00026c         0xd7 build/default/production/_ext/1472/CO2_Control.o
 .debug_frame     0x000343         0x67 build/default/production/_ext/1472/EventRTC.o
 .debug_frame     0x0003aa         0xe7 build/default/production/_ext/1472/EventScheduler.o
 .debug_frame     0x000491         0xe7 build/default/production/_ext/1472/EventTCPIP.o
 .debug_frame     0x000578         0x27 build/default/production/_ext/1472/FailSafeRelay.o
 .debug_frame     0x00059f         0xd7 build/default/production/_ext/1472/O2_Control.o
 .debug_frame     0x000676         0xa7 build/default/production/_ext/1472/OMB_Mode.o
 .debug_frame     0x00071d         0xa7 build/default/production/_ext/1472/RTC_S35390.o
 .debug_frame     0x0007c4         0xa7 build/default/production/_ext/1472/OMB_Output.o
 .debug_frame     0x00086b         0x27 build/default/production/_ext/1472/EventBuzzer.o
 .debug_frame     0x000892        0x147 build/default/production/_ext/1472/OMBLTC2439_Inputs.o
 .debug_frame     0x0009d9         0xc7 build/default/production/_ext/1472/OMB_UTI_Comm.o
 .debug_frame     0x000aa0         0xc7 build/default/production/_ext/1472/O2_RS485.o
 .debug_frame     0x000b67         0xe7 build/default/production/_ext/1472/OMB_DigitalInputs.o
 .debug_frame     0x000c4e         0x27 build/default/production/_ext/1472/USB.o
 .debug_frame     0x000c75         0x37 build/default/production/_ext/1472/Event_UV.o
 .debug_frame     0x000cac         0x57 build/default/production/_ext/1472/EEPROM_24AA1025.o
 .debug_frame     0x000d03         0x37 build/default/production/_ext/1472/CO2_RS485.o
 .debug_frame     0x000d3a         0x77 build/default/production/_ext/1472/OMB_AnalogOutput.o
 .debug_frame     0x000db1         0xd7 build/default/production/_ext/1472/p24FJ256DA210_UART2.o
 .debug_frame     0x000e88         0xc7 build/default/production/_ext/1472/p24FJ256DA210_UART1.o
 .debug_frame     0x000f4f         0x87 build/default/production/_ext/1472/p24FJ256DA210_Timer1.o
 .debug_frame     0x000fd6        0x127 build/default/production/_ext/1472/p24FJ256DA210_I2C3.o
 .debug_frame     0x0010fd        0x107 build/default/production/_ext/1472/p24FJ256DA210_SPI1.o
 .debug_frame     0x001204         0x47 build/default/production/_ext/1472/LTC2439.o
 .debug_frame     0x00124b         0xd7 build/default/production/_ext/1472/p24FJ256DA210_I2C1.o
 .debug_frame     0x001322         0x57 build/default/production/_ext/1472/p24FJ256DA210_ICN.o
 .debug_frame     0x001379         0xa7 build/default/production/_ext/1472/p24FJ256DA210_OCx.o
 .debug_frame     0x001420         0x67 build/default/production/_ext/1472/p24FJ256DA210_Timer3.o
 .debug_frame     0x001487         0xa7 build/default/production/_ext/1472/Flash.o
 .debug_frame     0x00152e        0x217 build/default/production/_ext/867694782/ENC28J60.o
 .debug_frame     0x001745         0x37 build/default/production/_ext/867694782/Delay.o
 .debug_frame     0x00177c         0x47 build/default/production/_ext/867694782/StackTsk.o
 .debug_frame     0x0017c3        0x117 build/default/production/_ext/867694782/Helpers.o
 .debug_frame     0x0018da         0x37 build/default/production/_ext/867694782/Announce.o
 .debug_frame     0x001911        0x137 build/default/production/_ext/867694782/UDP.o
 .debug_frame     0x001a48         0x87 build/default/production/_ext/867694782/ARP.o
 .debug_frame     0x001acf         0xc7 build/default/production/_ext/867694782/DHCP.o
 .debug_frame     0x001b96         0x87 build/default/production/_ext/867694782/Tick.o
 .debug_frame     0x001c1d         0x57 build/default/production/_ext/867694782/IP.o
 .debug_frame     0x001c74         0x27 build/default/production/_ext/867694782/ICMP.o
 .debug_frame     0x001c9b        0x237 build/default/production/_ext/867694782/TCP.o
 .debug_frame     0x001ed2         0x57 build/default/production/_ext/1472/main.o
 .debug_frame     0x001f29         0xc7 build/default/production/_ext/1472/General.o

.debug_str        0x000000        0x6b5
 *(.debug_str)
 .debug_str       0x000000         0x19 build/default/production/_ext/1472/RH_Control.o
 .debug_str       0x000019         0x19 build/default/production/_ext/1472/TempControl.o
 .debug_str       0x000032          0xd build/default/production/_ext/1472/AC_Hz.o
 .debug_str       0x00003f          0xd build/default/production/_ext/1472/AlarmContactRelay.o
 .debug_str       0x00004c         0x19 build/default/production/_ext/1472/CO2_Control.o
 .debug_str       0x000065         0x14 build/default/production/_ext/1472/EventRTC.o
 .debug_str       0x000079         0x2c build/default/production/_ext/1472/EventScheduler.o
 .debug_str       0x0000a5         0x61 build/default/production/_ext/1472/EventTCPIP.o
 .debug_str       0x000106          0xd build/default/production/_ext/1472/FailSafeRelay.o
 .debug_str       0x000113         0x19 build/default/production/_ext/1472/O2_Control.o
 .debug_str       0x00012c         0x19 build/default/production/_ext/1472/OMB_Mode.o
 .debug_str       0x000145         0x18 build/default/production/_ext/1472/RTC_S35390.o
 .debug_str       0x00015d          0xd build/default/production/_ext/1472/OMB_Output.o
 .debug_str       0x00016a          0xd build/default/production/_ext/1472/EventBuzzer.o
 .debug_str       0x000177         0x25 build/default/production/_ext/1472/OMBLTC2439_Inputs.o
 .debug_str       0x00019c         0x3a build/default/production/_ext/1472/OMB_UTI_Comm.o
 .debug_str       0x0001d6         0x4f build/default/production/_ext/1472/O2_RS485.o
 .debug_str       0x000225          0xd build/default/production/_ext/1472/OMB_DigitalInputs.o
 .debug_str       0x000232          0xd build/default/production/_ext/1472/USB.o
 .debug_str       0x00023f          0xd build/default/production/_ext/1472/Event_UV.o
 .debug_str       0x00024c         0x25 build/default/production/_ext/1472/EEPROM_24AA1025.o
 .debug_str       0x000271         0x1a build/default/production/_ext/1472/CO2_RS485.o
 .debug_str       0x00028b         0x1e build/default/production/_ext/1472/OMB_AnalogOutput.o
 .debug_str       0x0002a9          0xd build/default/production/_ext/1472/p24FJ256DA210_UART2.o
 .debug_str       0x0002b6          0xd build/default/production/_ext/1472/p24FJ256DA210_UART1.o
 .debug_str       0x0002c3          0xd build/default/production/_ext/1472/p24FJ256DA210_Timer1.o
 .debug_str       0x0002d0         0x15 build/default/production/_ext/1472/p24FJ256DA210_I2C3.o
 .debug_str       0x0002e5         0x18 build/default/production/_ext/1472/p24FJ256DA210_SPI1.o
 .debug_str       0x0002fd          0xd build/default/production/_ext/1472/LTC2439.o
 .debug_str       0x00030a          0xd build/default/production/_ext/1472/p24FJ256DA210_I2C1.o
 .debug_str       0x000317          0xd build/default/production/_ext/1472/p24FJ256DA210_ICN.o
 .debug_str       0x000324        0x105 build/default/production/_ext/1472/p24FJ256DA210_OCx.o
 .debug_str       0x000429          0xd build/default/production/_ext/1472/p24FJ256DA210_Timer3.o
 .debug_str       0x000436         0x32 build/default/production/_ext/1472/Flash.o
 .debug_str       0x000468         0x7a build/default/production/_ext/867694782/ENC28J60.o
 .debug_str       0x0004e2          0xd build/default/production/_ext/867694782/Delay.o
 .debug_str       0x0004ef          0xd build/default/production/_ext/867694782/StackTsk.o
 .debug_str       0x0004fc          0xd build/default/production/_ext/867694782/Helpers.o
 .debug_str       0x000509         0x21 build/default/production/_ext/867694782/Announce.o
 .debug_str       0x00052a         0x4e build/default/production/_ext/867694782/UDP.o
 .debug_str       0x000578         0x1b build/default/production/_ext/867694782/ARP.o
 .debug_str       0x000593         0x18 build/default/production/_ext/867694782/DHCP.o
 .debug_str       0x0005ab          0xd build/default/production/_ext/867694782/Tick.o
 .debug_str       0x0005b8         0x16 build/default/production/_ext/867694782/IP.o
 .debug_str       0x0005ce          0xd build/default/production/_ext/867694782/ICMP.o
 .debug_str       0x0005db         0xb9 build/default/production/_ext/867694782/TCP.o
 .debug_str       0x000694          0xd build/default/production/_ext/1472/main.o
 .debug_str       0x0006a1         0x14 build/default/production/_ext/1472/General.o

.debug_loc
 *(.debug_loc)

.debug_macinfo
 *(.debug_macinfo)

.debug_pubnames
                  0x000000       0x322a
 *(.debug_pubnames)
 .debug_pubnames
                  0x000000        0x20e build/default/production/_ext/1472/RH_Control.o
 .debug_pubnames
                  0x00020e        0x31f build/default/production/_ext/1472/TempControl.o
 .debug_pubnames
                  0x00052d         0x26 build/default/production/_ext/1472/AC_Hz.o
 .debug_pubnames
                  0x000553         0x33 build/default/production/_ext/1472/AlarmContactRelay.o
 .debug_pubnames
                  0x000586        0x1f6 build/default/production/_ext/1472/CO2_Control.o
 .debug_pubnames
                  0x00077c         0x78 build/default/production/_ext/1472/EventRTC.o
 .debug_pubnames
                  0x0007f4        0x172 build/default/production/_ext/1472/EventScheduler.o
 .debug_pubnames
                  0x000966        0x1d2 build/default/production/_ext/1472/EventTCPIP.o
 .debug_pubnames
                  0x000b38         0x2f build/default/production/_ext/1472/FailSafeRelay.o
 .debug_pubnames
                  0x000b67        0x1a8 build/default/production/_ext/1472/O2_Control.o
 .debug_pubnames
                  0x000d0f         0xdb build/default/production/_ext/1472/OMB_Mode.o
 .debug_pubnames
                  0x000dea        0x153 build/default/production/_ext/1472/RTC_S35390.o
 .debug_pubnames
                  0x000f3d         0xd6 build/default/production/_ext/1472/OMB_Output.o
 .debug_pubnames
                  0x001013         0x34 build/default/production/_ext/1472/EventBuzzer.o
 .debug_pubnames
                  0x001047        0x65b build/default/production/_ext/1472/OMBLTC2439_Inputs.o
 .debug_pubnames
                  0x0016a2        0x19f build/default/production/_ext/1472/OMB_UTI_Comm.o
 .debug_pubnames
                  0x001841        0x161 build/default/production/_ext/1472/O2_RS485.o
 .debug_pubnames
                  0x0019a2        0x147 build/default/production/_ext/1472/OMB_DigitalInputs.o
 .debug_pubnames
                  0x001ae9         0x1f build/default/production/_ext/1472/USB.o
 .debug_pubnames
                  0x001b08         0x45 build/default/production/_ext/1472/Event_UV.o
 .debug_pubnames
                  0x001b4d         0x70 build/default/production/_ext/1472/EEPROM_24AA1025.o
 .debug_pubnames
                  0x001bbd         0x8f build/default/production/_ext/1472/CO2_RS485.o
 .debug_pubnames
                  0x001c4c         0xc1 build/default/production/_ext/1472/OMB_AnalogOutput.o
 .debug_pubnames
                  0x001d0d        0x12e build/default/production/_ext/1472/p24FJ256DA210_UART2.o
 .debug_pubnames
                  0x001e3b        0x11b build/default/production/_ext/1472/p24FJ256DA210_UART1.o
 .debug_pubnames
                  0x001f56         0xbb build/default/production/_ext/1472/p24FJ256DA210_Timer1.o
 .debug_pubnames
                  0x002011        0x1a7 build/default/production/_ext/1472/p24FJ256DA210_I2C3.o
 .debug_pubnames
                  0x0021b8        0x193 build/default/production/_ext/1472/p24FJ256DA210_SPI1.o
 .debug_pubnames
                  0x00234b         0x79 build/default/production/_ext/1472/LTC2439.o
 .debug_pubnames
                  0x0023c4        0x1b3 build/default/production/_ext/1472/p24FJ256DA210_I2C1.o
 .debug_pubnames
                  0x002577         0x7f build/default/production/_ext/1472/p24FJ256DA210_ICN.o
 .debug_pubnames
                  0x0025f6         0xe7 build/default/production/_ext/1472/p24FJ256DA210_OCx.o
 .debug_pubnames
                  0x0026dd         0x7e build/default/production/_ext/1472/p24FJ256DA210_Timer3.o
 .debug_pubnames
                  0x00275b         0xd9 build/default/production/_ext/1472/Flash.o
 .debug_pubnames
                  0x002834        0x1b8 build/default/production/_ext/867694782/ENC28J60.o
 .debug_pubnames
                  0x0029ec         0x2c build/default/production/_ext/867694782/Delay.o
 .debug_pubnames
                  0x002a18         0x53 build/default/production/_ext/867694782/StackTsk.o
 .debug_pubnames
                  0x002a6b        0x10a build/default/production/_ext/867694782/Helpers.o
 .debug_pubnames
                  0x002b75         0x33 build/default/production/_ext/867694782/Announce.o
 .debug_pubnames
                  0x002ba8        0x155 build/default/production/_ext/867694782/UDP.o
 .debug_pubnames
                  0x002cfd         0x6f build/default/production/_ext/867694782/ARP.o
 .debug_pubnames
                  0x002d6c         0xcc build/default/production/_ext/867694782/DHCP.o
 .debug_pubnames
                  0x002e38         0x7e build/default/production/_ext/867694782/Tick.o
 .debug_pubnames
                  0x002eb6         0x44 build/default/production/_ext/867694782/IP.o
 .debug_pubnames
                  0x002efa         0x22 build/default/production/_ext/867694782/ICMP.o
 .debug_pubnames
                  0x002f1c        0x1ba build/default/production/_ext/867694782/TCP.o
 .debug_pubnames
                  0x0030d6         0x85 build/default/production/_ext/1472/main.o
 .debug_pubnames
                  0x00315b         0xcf build/default/production/_ext/1472/General.o

.debug_ranges
 *(.debug_ranges)

.debug_aranges    0x000000        0x600
 *(.debug_aranges)
 .debug_aranges
                  0x000000         0x20 build/default/production/_ext/1472/RH_Control.o
 .debug_aranges
                  0x000020         0x20 build/default/production/_ext/1472/TempControl.o
 .debug_aranges
                  0x000040         0x20 build/default/production/_ext/1472/AC_Hz.o
 .debug_aranges
                  0x000060         0x20 build/default/production/_ext/1472/AlarmContactRelay.o
 .debug_aranges
                  0x000080         0x20 build/default/production/_ext/1472/CO2_Control.o
 .debug_aranges
                  0x0000a0         0x20 build/default/production/_ext/1472/EventRTC.o
 .debug_aranges
                  0x0000c0         0x20 build/default/production/_ext/1472/EventScheduler.o
 .debug_aranges
                  0x0000e0         0x20 build/default/production/_ext/1472/EventTCPIP.o
 .debug_aranges
                  0x000100         0x20 build/default/production/_ext/1472/FailSafeRelay.o
 .debug_aranges
                  0x000120         0x20 build/default/production/_ext/1472/O2_Control.o
 .debug_aranges
                  0x000140         0x20 build/default/production/_ext/1472/OMB_Mode.o
 .debug_aranges
                  0x000160         0x20 build/default/production/_ext/1472/RTC_S35390.o
 .debug_aranges
                  0x000180         0x20 build/default/production/_ext/1472/OMB_Output.o
 .debug_aranges
                  0x0001a0         0x20 build/default/production/_ext/1472/EventBuzzer.o
 .debug_aranges
                  0x0001c0         0x20 build/default/production/_ext/1472/OMBLTC2439_Inputs.o
 .debug_aranges
                  0x0001e0         0x20 build/default/production/_ext/1472/OMB_UTI_Comm.o
 .debug_aranges
                  0x000200         0x20 build/default/production/_ext/1472/O2_RS485.o
 .debug_aranges
                  0x000220         0x20 build/default/production/_ext/1472/OMB_DigitalInputs.o
 .debug_aranges
                  0x000240         0x20 build/default/production/_ext/1472/USB.o
 .debug_aranges
                  0x000260         0x20 build/default/production/_ext/1472/Event_UV.o
 .debug_aranges
                  0x000280         0x20 build/default/production/_ext/1472/EEPROM_24AA1025.o
 .debug_aranges
                  0x0002a0         0x20 build/default/production/_ext/1472/CO2_RS485.o
 .debug_aranges
                  0x0002c0         0x20 build/default/production/_ext/1472/OMB_AnalogOutput.o
 .debug_aranges
                  0x0002e0         0x20 build/default/production/_ext/1472/p24FJ256DA210_UART2.o
 .debug_aranges
                  0x000300         0x20 build/default/production/_ext/1472/p24FJ256DA210_UART1.o
 .debug_aranges
                  0x000320         0x20 build/default/production/_ext/1472/p24FJ256DA210_Timer1.o
 .debug_aranges
                  0x000340         0x20 build/default/production/_ext/1472/p24FJ256DA210_I2C3.o
 .debug_aranges
                  0x000360         0x20 build/default/production/_ext/1472/p24FJ256DA210_SPI1.o
 .debug_aranges
                  0x000380         0x20 build/default/production/_ext/1472/LTC2439.o
 .debug_aranges
                  0x0003a0         0x20 build/default/production/_ext/1472/p24FJ256DA210_I2C1.o
 .debug_aranges
                  0x0003c0         0x20 build/default/production/_ext/1472/p24FJ256DA210_ICN.o
 .debug_aranges
                  0x0003e0         0x20 build/default/production/_ext/1472/p24FJ256DA210_OCx.o
 .debug_aranges
                  0x000400         0x20 build/default/production/_ext/1472/p24FJ256DA210_Timer3.o
 .debug_aranges
                  0x000420         0x20 build/default/production/_ext/1472/Flash.o
 .debug_aranges
                  0x000440         0x20 build/default/production/_ext/867694782/ENC28J60.o
 .debug_aranges
                  0x000460         0x20 build/default/production/_ext/867694782/Delay.o
 .debug_aranges
                  0x000480         0x20 build/default/production/_ext/867694782/StackTsk.o
 .debug_aranges
                  0x0004a0         0x20 build/default/production/_ext/867694782/Helpers.o
 .debug_aranges
                  0x0004c0         0x20 build/default/production/_ext/867694782/Announce.o
 .debug_aranges
                  0x0004e0         0x20 build/default/production/_ext/867694782/UDP.o
 .debug_aranges
                  0x000500         0x20 build/default/production/_ext/867694782/ARP.o
 .debug_aranges
                  0x000520         0x20 build/default/production/_ext/867694782/DHCP.o
 .debug_aranges
                  0x000540         0x20 build/default/production/_ext/867694782/Tick.o
 .debug_aranges
                  0x000560         0x20 build/default/production/_ext/867694782/IP.o
 .debug_aranges
                  0x000580         0x20 build/default/production/_ext/867694782/ICMP.o
 .debug_aranges
                  0x0005a0         0x20 build/default/production/_ext/867694782/TCP.o
 .debug_aranges
                  0x0005c0         0x20 build/default/production/_ext/1472/main.o
 .debug_aranges
                  0x0005e0         0x20 build/default/production/_ext/1472/General.o

.ivt              0x000004         0xfc
                  0x000004          0x4 LONG 0x35c DEFINED (__ReservedTrap0)?ABSOLUTE (__ReservedTrap0):ABSOLUTE (__DefaultInterrupt)
                  0x000006          0x4 LONG 0x35c DEFINED (__OscillatorFail)?ABSOLUTE (__OscillatorFail):ABSOLUTE (__DefaultInterrupt)
                  0x000008          0x4 LONG 0x410c DEFINED (__AddressError)?ABSOLUTE (__AddressError):ABSOLUTE (__DefaultInterrupt)
                  0x00000a          0x4 LONG 0x4116 DEFINED (__StackError)?ABSOLUTE (__StackError):ABSOLUTE (__DefaultInterrupt)
                  0x00000c          0x4 LONG 0x35c DEFINED (__MathError)?ABSOLUTE (__MathError):ABSOLUTE (__DefaultInterrupt)
                  0x00000e          0x4 LONG 0x35c DEFINED (__ReservedTrap5)?ABSOLUTE (__ReservedTrap5):ABSOLUTE (__DefaultInterrupt)
                  0x000010          0x4 LONG 0x35c DEFINED (__ReservedTrap6)?ABSOLUTE (__ReservedTrap6):ABSOLUTE (__DefaultInterrupt)
                  0x000012          0x4 LONG 0x35c DEFINED (__ReservedTrap7)?ABSOLUTE (__ReservedTrap7):ABSOLUTE (__DefaultInterrupt)
                  0x000014          0x4 LONG 0x35c DEFINED (__INT0Interrupt)?ABSOLUTE (__INT0Interrupt):ABSOLUTE (__DefaultInterrupt)
                  0x000016          0x4 LONG 0x35c DEFINED (__IC1Interrupt)?ABSOLUTE (__IC1Interrupt):ABSOLUTE (__DefaultInterrupt)
                  0x000018          0x4 LONG 0x35c DEFINED (__OC1Interrupt)?ABSOLUTE (__OC1Interrupt):ABSOLUTE (__DefaultInterrupt)
                  0x00001a          0x4 LONG 0xc3d6 DEFINED (__T1Interrupt)?ABSOLUTE (__T1Interrupt):ABSOLUTE (__DefaultInterrupt)
                  0x00001c          0x4 LONG 0x35c DEFINED (__Interrupt4)?ABSOLUTE (__Interrupt4):ABSOLUTE (__DefaultInterrupt)
                  0x00001e          0x4 LONG 0x35c DEFINED (__IC2Interrupt)?ABSOLUTE (__IC2Interrupt):ABSOLUTE (__DefaultInterrupt)
                  0x000020          0x4 LONG 0x35c DEFINED (__OC2Interrupt)?ABSOLUTE (__OC2Interrupt):ABSOLUTE (__DefaultInterrupt)
                  0x000022          0x4 LONG 0xc178 DEFINED (__T2Interrupt)?ABSOLUTE (__T2Interrupt):ABSOLUTE (__DefaultInterrupt)
                  0x000024          0x4 LONG 0xc474 DEFINED (__T3Interrupt)?ABSOLUTE (__T3Interrupt):ABSOLUTE (__DefaultInterrupt)
                  0x000026          0x4 LONG 0x35c DEFINED (__SPI1ErrInterrupt)?ABSOLUTE (__SPI1ErrInterrupt):ABSOLUTE (__DefaultInterrupt)
                  0x000028          0x4 LONG 0xb912 DEFINED (__SPI1Interrupt)?ABSOLUTE (__SPI1Interrupt):ABSOLUTE (__DefaultInterrupt)
                  0x00002a          0x4 LONG 0xbd9c DEFINED (__U1RXInterrupt)?ABSOLUTE (__U1RXInterrupt):ABSOLUTE (__DefaultInterrupt)
                  0x00002c          0x4 LONG 0x35c DEFINED (__U1TXInterrupt)?ABSOLUTE (__U1TXInterrupt):ABSOLUTE (__DefaultInterrupt)
                  0x00002e          0x4 LONG 0x35c DEFINED (__ADC1Interrupt)?ABSOLUTE (__ADC1Interrupt):ABSOLUTE (__DefaultInterrupt)
                  0x000030          0x4 LONG 0x35c DEFINED (__Interrupt14)?ABSOLUTE (__Interrupt14):ABSOLUTE (__DefaultInterrupt)
                  0x000032          0x4 LONG 0x35c DEFINED (__Interrupt15)?ABSOLUTE (__Interrupt15):ABSOLUTE (__DefaultInterrupt)
                  0x000034          0x4 LONG 0xbbde DEFINED (__SI2C1Interrupt)?ABSOLUTE (__SI2C1Interrupt):ABSOLUTE (__DefaultInterrupt)
                  0x000036          0x4 LONG 0x35c DEFINED (__MI2C1Interrupt)?ABSOLUTE (__MI2C1Interrupt):ABSOLUTE (__DefaultInterrupt)
                  0x000038          0x4 LONG 0x35c DEFINED (__CompInterrupt)?ABSOLUTE (__CompInterrupt):ABSOLUTE (__DefaultInterrupt)
                  0x00003a          0x4 LONG 0xc5ec DEFINED (__CNInterrupt)?ABSOLUTE (__CNInterrupt):ABSOLUTE (__DefaultInterrupt)
                  0x00003c          0x4 LONG 0x35c DEFINED (__INT1Interrupt)?ABSOLUTE (__INT1Interrupt):ABSOLUTE (__DefaultInterrupt)
                  0x00003e          0x4 LONG 0x35c DEFINED (__Interrupt21)?ABSOLUTE (__Interrupt21):ABSOLUTE (__DefaultInterrupt)
                  0x000040          0x4 LONG 0x35c DEFINED (__IC7Interrupt)?ABSOLUTE (__IC7Interrupt):ABSOLUTE (__DefaultInterrupt)
                  0x000042          0x4 LONG 0x35c DEFINED (__IC8Interrupt)?ABSOLUTE (__IC8Interrupt):ABSOLUTE (__DefaultInterrupt)
                  0x000044          0x4 LONG 0x35c DEFINED (__Interrupt24)?ABSOLUTE (__Interrupt24):ABSOLUTE (__DefaultInterrupt)
                  0x000046          0x4 LONG 0x35c DEFINED (__OC3Interrupt)?ABSOLUTE (__OC3Interrupt):ABSOLUTE (__DefaultInterrupt)
                  0x000048          0x4 LONG 0x35c DEFINED (__OC4Interrupt)?ABSOLUTE (__OC4Interrupt):ABSOLUTE (__DefaultInterrupt)
                  0x00004a          0x4 LONG 0x35c DEFINED (__T4Interrupt)?ABSOLUTE (__T4Interrupt):ABSOLUTE (__DefaultInterrupt)
                  0x00004c          0x4 LONG 0x35c DEFINED (__T5Interrupt)?ABSOLUTE (__T5Interrupt):ABSOLUTE (__DefaultInterrupt)
                  0x00004e          0x4 LONG 0x35c DEFINED (__INT2Interrupt)?ABSOLUTE (__INT2Interrupt):ABSOLUTE (__DefaultInterrupt)
                  0x000050          0x4 LONG 0xb49c DEFINED (__U2RXInterrupt)?ABSOLUTE (__U2RXInterrupt):ABSOLUTE (__DefaultInterrupt)
                  0x000052          0x4 LONG 0x35c DEFINED (__U2TXInterrupt)?ABSOLUTE (__U2TXInterrupt):ABSOLUTE (__DefaultInterrupt)
                  0x000054          0x4 LONG 0x35c DEFINED (__SPI2ErrInterrupt)?ABSOLUTE (__SPI2ErrInterrupt):ABSOLUTE (__DefaultInterrupt)
                  0x000056          0x4 LONG 0x35c DEFINED (__SPI2Interrupt)?ABSOLUTE (__SPI2Interrupt):ABSOLUTE (__DefaultInterrupt)
                  0x000058          0x4 LONG 0x35c DEFINED (__Interrupt34)?ABSOLUTE (__Interrupt34):ABSOLUTE (__DefaultInterrupt)
                  0x00005a          0x4 LONG 0x35c DEFINED (__Interrupt35)?ABSOLUTE (__Interrupt35):ABSOLUTE (__DefaultInterrupt)
                  0x00005c          0x4 LONG 0x35c DEFINED (__Interrupt36)?ABSOLUTE (__Interrupt36):ABSOLUTE (__DefaultInterrupt)
                  0x00005e          0x4 LONG 0x35c DEFINED (__IC3Interrupt)?ABSOLUTE (__IC3Interrupt):ABSOLUTE (__DefaultInterrupt)
                  0x000060          0x4 LONG 0x35c DEFINED (__IC4Interrupt)?ABSOLUTE (__IC4Interrupt):ABSOLUTE (__DefaultInterrupt)
                  0x000062          0x4 LONG 0x35c DEFINED (__IC5Interrupt)?ABSOLUTE (__IC5Interrupt):ABSOLUTE (__DefaultInterrupt)
                  0x000064          0x4 LONG 0x35c DEFINED (__IC6Interrupt)?ABSOLUTE (__IC6Interrupt):ABSOLUTE (__DefaultInterrupt)
                  0x000066          0x4 LONG 0x35c DEFINED (__OC5Interrupt)?ABSOLUTE (__OC5Interrupt):ABSOLUTE (__DefaultInterrupt)
                  0x000068          0x4 LONG 0x35c DEFINED (__OC6Interrupt)?ABSOLUTE (__OC6Interrupt):ABSOLUTE (__DefaultInterrupt)
                  0x00006a          0x4 LONG 0x35c DEFINED (__OC7Interrupt)?ABSOLUTE (__OC7Interrupt):ABSOLUTE (__DefaultInterrupt)
                  0x00006c          0x4 LONG 0x35c DEFINED (__OC8Interrupt)?ABSOLUTE (__OC8Interrupt):ABSOLUTE (__DefaultInterrupt)
                  0x00006e          0x4 LONG 0x35c DEFINED (__PMPInterrupt)?ABSOLUTE (__PMPInterrupt):ABSOLUTE (__DefaultInterrupt)
                  0x000070          0x4 LONG 0x35c DEFINED (__Interrupt46)?ABSOLUTE (__Interrupt46):ABSOLUTE (__DefaultInterrupt)
                  0x000072          0x4 LONG 0x35c DEFINED (__Interrupt47)?ABSOLUTE (__Interrupt47):ABSOLUTE (__DefaultInterrupt)
                  0x000074          0x4 LONG 0x35c DEFINED (__Interrupt48)?ABSOLUTE (__Interrupt48):ABSOLUTE (__DefaultInterrupt)
                  0x000076          0x4 LONG 0x35c DEFINED (__SI2C2Interrupt)?ABSOLUTE (__SI2C2Interrupt):ABSOLUTE (__DefaultInterrupt)
                  0x000078          0x4 LONG 0x35c DEFINED (__MI2C2Interrupt)?ABSOLUTE (__MI2C2Interrupt):ABSOLUTE (__DefaultInterrupt)
                  0x00007a          0x4 LONG 0x35c DEFINED (__Interrupt51)?ABSOLUTE (__Interrupt51):ABSOLUTE (__DefaultInterrupt)
                  0x00007c          0x4 LONG 0x35c DEFINED (__Interrupt52)?ABSOLUTE (__Interrupt52):ABSOLUTE (__DefaultInterrupt)
                  0x00007e          0x4 LONG 0x35c DEFINED (__INT3Interrupt)?ABSOLUTE (__INT3Interrupt):ABSOLUTE (__DefaultInterrupt)
                  0x000080          0x4 LONG 0x35c DEFINED (__INT4Interrupt)?ABSOLUTE (__INT4Interrupt):ABSOLUTE (__DefaultInterrupt)
                  0x000082          0x4 LONG 0x35c DEFINED (__Interrupt55)?ABSOLUTE (__Interrupt55):ABSOLUTE (__DefaultInterrupt)
                  0x000084          0x4 LONG 0x35c DEFINED (__Interrupt56)?ABSOLUTE (__Interrupt56):ABSOLUTE (__DefaultInterrupt)
                  0x000086          0x4 LONG 0x35c DEFINED (__Interrupt57)?ABSOLUTE (__Interrupt57):ABSOLUTE (__DefaultInterrupt)
                  0x000088          0x4 LONG 0x35c DEFINED (__Interrupt58)?ABSOLUTE (__Interrupt58):ABSOLUTE (__DefaultInterrupt)
                  0x00008a          0x4 LONG 0x35c DEFINED (__Interrupt59)?ABSOLUTE (__Interrupt59):ABSOLUTE (__DefaultInterrupt)
                  0x00008c          0x4 LONG 0x35c DEFINED (__Interrupt60)?ABSOLUTE (__Interrupt60):ABSOLUTE (__DefaultInterrupt)
                  0x00008e          0x4 LONG 0x35c DEFINED (__Interrupt61)?ABSOLUTE (__Interrupt61):ABSOLUTE (__DefaultInterrupt)
                  0x000090          0x4 LONG 0x35c DEFINED (__RTCCInterrupt)?ABSOLUTE (__RTCCInterrupt):ABSOLUTE (__DefaultInterrupt)
                  0x000092          0x4 LONG 0x35c DEFINED (__Interrupt63)?ABSOLUTE (__Interrupt63):ABSOLUTE (__DefaultInterrupt)
                  0x000094          0x4 LONG 0x35c DEFINED (__Interrupt64)?ABSOLUTE (__Interrupt64):ABSOLUTE (__DefaultInterrupt)
                  0x000096          0x4 LONG 0x35c DEFINED (__U1ErrInterrupt)?ABSOLUTE (__U1ErrInterrupt):ABSOLUTE (__DefaultInterrupt)
                  0x000098          0x4 LONG 0x35c DEFINED (__U2ErrInterrupt)?ABSOLUTE (__U2ErrInterrupt):ABSOLUTE (__DefaultInterrupt)
                  0x00009a          0x4 LONG 0x35c DEFINED (__CRCInterrupt)?ABSOLUTE (__CRCInterrupt):ABSOLUTE (__DefaultInterrupt)
                  0x00009c          0x4 LONG 0x35c DEFINED (__Interrupt68)?ABSOLUTE (__Interrupt68):ABSOLUTE (__DefaultInterrupt)
                  0x00009e          0x4 LONG 0x35c DEFINED (__Interrupt69)?ABSOLUTE (__Interrupt69):ABSOLUTE (__DefaultInterrupt)
                  0x0000a0          0x4 LONG 0x35c DEFINED (__Interrupt70)?ABSOLUTE (__Interrupt70):ABSOLUTE (__DefaultInterrupt)
                  0x0000a2          0x4 LONG 0x35c DEFINED (__Interrupt71)?ABSOLUTE (__Interrupt71):ABSOLUTE (__DefaultInterrupt)
                  0x0000a4          0x4 LONG 0x35c DEFINED (__LVDInterrupt)?ABSOLUTE (__LVDInterrupt):ABSOLUTE (__DefaultInterrupt)
                  0x0000a6          0x4 LONG 0x35c DEFINED (__Interrupt73)?ABSOLUTE (__Interrupt73):ABSOLUTE (__DefaultInterrupt)
                  0x0000a8          0x4 LONG 0x35c DEFINED (__Interrupt74)?ABSOLUTE (__Interrupt74):ABSOLUTE (__DefaultInterrupt)
                  0x0000aa          0x4 LONG 0x35c DEFINED (__Interrupt75)?ABSOLUTE (__Interrupt75):ABSOLUTE (__DefaultInterrupt)
                  0x0000ac          0x4 LONG 0x35c DEFINED (__Interrupt76)?ABSOLUTE (__Interrupt76):ABSOLUTE (__DefaultInterrupt)
                  0x0000ae          0x4 LONG 0x35c DEFINED (__CTMUInterrupt)?ABSOLUTE (__CTMUInterrupt):ABSOLUTE (__DefaultInterrupt)
                  0x0000b0          0x4 LONG 0x35c DEFINED (__Interrupt78)?ABSOLUTE (__Interrupt78):ABSOLUTE (__DefaultInterrupt)
                  0x0000b2          0x4 LONG 0x35c DEFINED (__Interrupt79)?ABSOLUTE (__Interrupt79):ABSOLUTE (__DefaultInterrupt)
                  0x0000b4          0x4 LONG 0x35c DEFINED (__Interrupt80)?ABSOLUTE (__Interrupt80):ABSOLUTE (__DefaultInterrupt)
                  0x0000b6          0x4 LONG 0x35c DEFINED (__U3ErrInterrupt)?ABSOLUTE (__U3ErrInterrupt):ABSOLUTE (__DefaultInterrupt)
                  0x0000b8          0x4 LONG 0x35c DEFINED (__U3RXInterrupt)?ABSOLUTE (__U3RXInterrupt):ABSOLUTE (__DefaultInterrupt)
                  0x0000ba          0x4 LONG 0x35c DEFINED (__U3TXInterrupt)?ABSOLUTE (__U3TXInterrupt):ABSOLUTE (__DefaultInterrupt)
                  0x0000bc          0x4 LONG 0x35c DEFINED (__SI2C3Interrupt)?ABSOLUTE (__SI2C3Interrupt):ABSOLUTE (__DefaultInterrupt)
                  0x0000be          0x4 LONG 0x35c DEFINED (__MI2C3Interrupt)?ABSOLUTE (__MI2C3Interrupt):ABSOLUTE (__DefaultInterrupt)
                  0x0000c0          0x4 LONG 0x35c DEFINED (__USB1Interrupt)?ABSOLUTE (__USB1Interrupt):ABSOLUTE (__DefaultInterrupt)
                  0x0000c2          0x4 LONG 0x35c DEFINED (__U4ErrInterrupt)?ABSOLUTE (__U4ErrInterrupt):ABSOLUTE (__DefaultInterrupt)
                  0x0000c4          0x4 LONG 0x35c DEFINED (__U4RXInterrupt)?ABSOLUTE (__U4RXInterrupt):ABSOLUTE (__DefaultInterrupt)
                  0x0000c6          0x4 LONG 0x35c DEFINED (__U4TXInterrupt)?ABSOLUTE (__U4TXInterrupt):ABSOLUTE (__DefaultInterrupt)
                  0x0000c8          0x4 LONG 0x35c DEFINED (__SPI3ErrInterrupt)?ABSOLUTE (__SPI3ErrInterrupt):ABSOLUTE (__DefaultInterrupt)
                  0x0000ca          0x4 LONG 0x35c DEFINED (__SPI3Interrupt)?ABSOLUTE (__SPI3Interrupt):ABSOLUTE (__DefaultInterrupt)
                  0x0000cc          0x4 LONG 0x35c DEFINED (__OC9Interrupt)?ABSOLUTE (__OC9Interrupt):ABSOLUTE (__DefaultInterrupt)
                  0x0000ce          0x4 LONG 0x35c DEFINED (__IC9Interrupt)?ABSOLUTE (__IC9Interrupt):ABSOLUTE (__DefaultInterrupt)
                  0x0000d0          0x4 LONG 0x35c DEFINED (__Interrupt94)?ABSOLUTE (__Interrupt94):ABSOLUTE (__DefaultInterrupt)
                  0x0000d2          0x4 LONG 0x35c DEFINED (__Interrupt95)?ABSOLUTE (__Interrupt95):ABSOLUTE (__DefaultInterrupt)
                  0x0000d4          0x4 LONG 0x35c DEFINED (__Interrupt96)?ABSOLUTE (__Interrupt96):ABSOLUTE (__DefaultInterrupt)
                  0x0000d6          0x4 LONG 0x35c DEFINED (__Interrupt97)?ABSOLUTE (__Interrupt97):ABSOLUTE (__DefaultInterrupt)
                  0x0000d8          0x4 LONG 0x35c DEFINED (__Interrupt98)?ABSOLUTE (__Interrupt98):ABSOLUTE (__DefaultInterrupt)
                  0x0000da          0x4 LONG 0x35c DEFINED (__Interrupt99)?ABSOLUTE (__Interrupt99):ABSOLUTE (__DefaultInterrupt)
                  0x0000dc          0x4 LONG 0x35c DEFINED (__GFX1Interrupt)?ABSOLUTE (__GFX1Interrupt):ABSOLUTE (__DefaultInterrupt)
                  0x0000de          0x4 LONG 0x35c DEFINED (__Interrupt101)?ABSOLUTE (__Interrupt101):ABSOLUTE (__DefaultInterrupt)
                  0x0000e0          0x4 LONG 0x35c DEFINED (__Interrupt102)?ABSOLUTE (__Interrupt102):ABSOLUTE (__DefaultInterrupt)
                  0x0000e2          0x4 LONG 0x35c DEFINED (__Interrupt103)?ABSOLUTE (__Interrupt103):ABSOLUTE (__DefaultInterrupt)
                  0x0000e4          0x4 LONG 0x35c DEFINED (__Interrupt104)?ABSOLUTE (__Interrupt104):ABSOLUTE (__DefaultInterrupt)
                  0x0000e6          0x4 LONG 0x35c DEFINED (__Interrupt105)?ABSOLUTE (__Interrupt105):ABSOLUTE (__DefaultInterrupt)
                  0x0000e8          0x4 LONG 0x35c DEFINED (__Interrupt106)?ABSOLUTE (__Interrupt106):ABSOLUTE (__DefaultInterrupt)
                  0x0000ea          0x4 LONG 0x35c DEFINED (__Interrupt107)?ABSOLUTE (__Interrupt107):ABSOLUTE (__DefaultInterrupt)
                  0x0000ec          0x4 LONG 0x35c DEFINED (__Interrupt108)?ABSOLUTE (__Interrupt108):ABSOLUTE (__DefaultInterrupt)
                  0x0000ee          0x4 LONG 0x35c DEFINED (__Interrupt109)?ABSOLUTE (__Interrupt109):ABSOLUTE (__DefaultInterrupt)
                  0x0000f0          0x4 LONG 0x35c DEFINED (__Interrupt110)?ABSOLUTE (__Interrupt110):ABSOLUTE (__DefaultInterrupt)
                  0x0000f2          0x4 LONG 0x35c DEFINED (__Interrupt111)?ABSOLUTE (__Interrupt111):ABSOLUTE (__DefaultInterrupt)
                  0x0000f4          0x4 LONG 0x35c DEFINED (__Interrupt112)?ABSOLUTE (__Interrupt112):ABSOLUTE (__DefaultInterrupt)
                  0x0000f6          0x4 LONG 0x35c DEFINED (__Interrupt113)?ABSOLUTE (__Interrupt113):ABSOLUTE (__DefaultInterrupt)
                  0x0000f8          0x4 LONG 0x35c DEFINED (__Interrupt114)?ABSOLUTE (__Interrupt114):ABSOLUTE (__DefaultInterrupt)
                  0x0000fa          0x4 LONG 0x35c DEFINED (__Interrupt115)?ABSOLUTE (__Interrupt115):ABSOLUTE (__DefaultInterrupt)
                  0x0000fc          0x4 LONG 0x35c DEFINED (__Interrupt116)?ABSOLUTE (__Interrupt116):ABSOLUTE (__DefaultInterrupt)
                  0x0000fe          0x4 LONG 0x35c DEFINED (__Interrupt117)?ABSOLUTE (__Interrupt117):ABSOLUTE (__DefaultInterrupt)

.aivt             0x000104         0xfc
                  0x000104          0x4 LONG 0x35c DEFINED (__AltReservedTrap0)?ABSOLUTE (__AltReservedTrap0):DEFINED (__ReservedTrap0)?ABSOLUTE (__ReservedTrap0):ABSOLUTE (__DefaultInterrupt)
                  0x000106          0x4 LONG 0x35c DEFINED (__AltOscillatorFail)?ABSOLUTE (__AltOscillatorFail):DEFINED (__OscillatorFail)?ABSOLUTE (__OscillatorFail):ABSOLUTE (__DefaultInterrupt)
                  0x000108          0x4 LONG 0x410c DEFINED (__AltAddressError)?ABSOLUTE (__AltAddressError):DEFINED (__AddressError)?ABSOLUTE (__AddressError):ABSOLUTE (__DefaultInterrupt)
                  0x00010a          0x4 LONG 0x4116 DEFINED (__AltStackError)?ABSOLUTE (__AltStackError):DEFINED (__StackError)?ABSOLUTE (__StackError):ABSOLUTE (__DefaultInterrupt)
                  0x00010c          0x4 LONG 0x35c DEFINED (__AltMathError)?ABSOLUTE (__AltMathError):DEFINED (__MathError)?ABSOLUTE (__MathError):ABSOLUTE (__DefaultInterrupt)
                  0x00010e          0x4 LONG 0x35c DEFINED (__AltReservedTrap5)?ABSOLUTE (__AltReservedTrap5):DEFINED (__ReservedTrap5)?ABSOLUTE (__ReservedTrap5):ABSOLUTE (__DefaultInterrupt)
                  0x000110          0x4 LONG 0x35c DEFINED (__AltReservedTrap6)?ABSOLUTE (__AltReservedTrap6):DEFINED (__ReservedTrap6)?ABSOLUTE (__ReservedTrap6):ABSOLUTE (__DefaultInterrupt)
                  0x000112          0x4 LONG 0x35c DEFINED (__AltReservedTrap7)?ABSOLUTE (__AltReservedTrap7):DEFINED (__ReservedTrap7)?ABSOLUTE (__ReservedTrap7):ABSOLUTE (__DefaultInterrupt)
                  0x000114          0x4 LONG 0x35c DEFINED (__AltINT0Interrupt)?ABSOLUTE (__AltINT0Interrupt):DEFINED (__INT0Interrupt)?ABSOLUTE (__INT0Interrupt):ABSOLUTE (__DefaultInterrupt)
                  0x000116          0x4 LONG 0x35c DEFINED (__AltIC1Interrupt)?ABSOLUTE (__AltIC1Interrupt):DEFINED (__IC1Interrupt)?ABSOLUTE (__IC1Interrupt):ABSOLUTE (__DefaultInterrupt)
                  0x000118          0x4 LONG 0x35c DEFINED (__AltOC1Interrupt)?ABSOLUTE (__AltOC1Interrupt):DEFINED (__OC1Interrupt)?ABSOLUTE (__OC1Interrupt):ABSOLUTE (__DefaultInterrupt)
                  0x00011a          0x4 LONG 0xc3d6 DEFINED (__AltT1Interrupt)?ABSOLUTE (__AltT1Interrupt):DEFINED (__T1Interrupt)?ABSOLUTE (__T1Interrupt):ABSOLUTE (__DefaultInterrupt)
                  0x00011c          0x4 LONG 0x35c DEFINED (__AltInterrupt4)?ABSOLUTE (__AltInterrupt4):DEFINED (__Interrupt4)?ABSOLUTE (__Interrupt4):ABSOLUTE (__DefaultInterrupt)
                  0x00011e          0x4 LONG 0x35c DEFINED (__AltIC2Interrupt)?ABSOLUTE (__AltIC2Interrupt):DEFINED (__IC2Interrupt)?ABSOLUTE (__IC2Interrupt):ABSOLUTE (__DefaultInterrupt)
                  0x000120          0x4 LONG 0x35c DEFINED (__AltOC2Interrupt)?ABSOLUTE (__AltOC2Interrupt):DEFINED (__OC2Interrupt)?ABSOLUTE (__OC2Interrupt):ABSOLUTE (__DefaultInterrupt)
                  0x000122          0x4 LONG 0xc178 DEFINED (__AltT2Interrupt)?ABSOLUTE (__AltT2Interrupt):DEFINED (__T2Interrupt)?ABSOLUTE (__T2Interrupt):ABSOLUTE (__DefaultInterrupt)
                  0x000124          0x4 LONG 0xc474 DEFINED (__AltT3Interrupt)?ABSOLUTE (__AltT3Interrupt):DEFINED (__T3Interrupt)?ABSOLUTE (__T3Interrupt):ABSOLUTE (__DefaultInterrupt)
                  0x000126          0x4 LONG 0x35c DEFINED (__AltSPI1ErrInterrupt)?ABSOLUTE (__AltSPI1ErrInterrupt):DEFINED (__SPI1ErrInterrupt)?ABSOLUTE (__SPI1ErrInterrupt):ABSOLUTE (__DefaultInterrupt)
                  0x000128          0x4 LONG 0xb912 DEFINED (__AltSPI1Interrupt)?ABSOLUTE (__AltSPI1Interrupt):DEFINED (__SPI1Interrupt)?ABSOLUTE (__SPI1Interrupt):ABSOLUTE (__DefaultInterrupt)
                  0x00012a          0x4 LONG 0xbd9c DEFINED (__AltU1RXInterrupt)?ABSOLUTE (__AltU1RXInterrupt):DEFINED (__U1RXInterrupt)?ABSOLUTE (__U1RXInterrupt):ABSOLUTE (__DefaultInterrupt)
                  0x00012c          0x4 LONG 0x35c DEFINED (__AltU1TXInterrupt)?ABSOLUTE (__AltU1TXInterrupt):DEFINED (__U1TXInterrupt)?ABSOLUTE (__U1TXInterrupt):ABSOLUTE (__DefaultInterrupt)
                  0x00012e          0x4 LONG 0x35c DEFINED (__AltADC1Interrupt)?ABSOLUTE (__AltADC1Interrupt):DEFINED (__ADC1Interrupt)?ABSOLUTE (__ADC1Interrupt):ABSOLUTE (__DefaultInterrupt)
                  0x000130          0x4 LONG 0x35c DEFINED (__AltInterrupt14)?ABSOLUTE (__AltInterrupt14):DEFINED (__Interrupt14)?ABSOLUTE (__Interrupt14):ABSOLUTE (__DefaultInterrupt)
                  0x000132          0x4 LONG 0x35c DEFINED (__AltInterrupt15)?ABSOLUTE (__AltInterrupt15):DEFINED (__Interrupt15)?ABSOLUTE (__Interrupt15):ABSOLUTE (__DefaultInterrupt)
                  0x000134          0x4 LONG 0xbbde DEFINED (__AltSI2C1Interrupt)?ABSOLUTE (__AltSI2C1Interrupt):DEFINED (__SI2C1Interrupt)?ABSOLUTE (__SI2C1Interrupt):ABSOLUTE (__DefaultInterrupt)
                  0x000136          0x4 LONG 0x35c DEFINED (__AltMI2C1Interrupt)?ABSOLUTE (__AltMI2C1Interrupt):DEFINED (__MI2C1Interrupt)?ABSOLUTE (__MI2C1Interrupt):ABSOLUTE (__DefaultInterrupt)
                  0x000138          0x4 LONG 0x35c DEFINED (__AltCompInterrupt)?ABSOLUTE (__AltCompInterrupt):DEFINED (__CompInterrupt)?ABSOLUTE (__CompInterrupt):ABSOLUTE (__DefaultInterrupt)
                  0x00013a          0x4 LONG 0xc5ec DEFINED (__AltCNInterrupt)?ABSOLUTE (__AltCNInterrupt):DEFINED (__CNInterrupt)?ABSOLUTE (__CNInterrupt):ABSOLUTE (__DefaultInterrupt)
                  0x00013c          0x4 LONG 0x35c DEFINED (__AltINT1Interrupt)?ABSOLUTE (__AltINT1Interrupt):DEFINED (__INT1Interrupt)?ABSOLUTE (__INT1Interrupt):ABSOLUTE (__DefaultInterrupt)
                  0x00013e          0x4 LONG 0x35c DEFINED (__AltInterrupt21)?ABSOLUTE (__AltInterrupt21):DEFINED (__Interrupt21)?ABSOLUTE (__Interrupt21):ABSOLUTE (__DefaultInterrupt)
                  0x000140          0x4 LONG 0x35c DEFINED (__AltIC7Interrupt)?ABSOLUTE (__AltIC7Interrupt):DEFINED (__IC7Interrupt)?ABSOLUTE (__IC7Interrupt):ABSOLUTE (__DefaultInterrupt)
                  0x000142          0x4 LONG 0x35c DEFINED (__AltIC8Interrupt)?ABSOLUTE (__AltIC8Interrupt):DEFINED (__IC8Interrupt)?ABSOLUTE (__IC8Interrupt):ABSOLUTE (__DefaultInterrupt)
                  0x000144          0x4 LONG 0x35c DEFINED (__AltInterrupt24)?ABSOLUTE (__AltInterrupt24):DEFINED (__Interrupt24)?ABSOLUTE (__Interrupt24):ABSOLUTE (__DefaultInterrupt)
                  0x000146          0x4 LONG 0x35c DEFINED (__AltOC3Interrupt)?ABSOLUTE (__AltOC3Interrupt):DEFINED (__OC3Interrupt)?ABSOLUTE (__OC3Interrupt):ABSOLUTE (__DefaultInterrupt)
                  0x000148          0x4 LONG 0x35c DEFINED (__AltOC4Interrupt)?ABSOLUTE (__AltOC4Interrupt):DEFINED (__OC4Interrupt)?ABSOLUTE (__OC4Interrupt):ABSOLUTE (__DefaultInterrupt)
                  0x00014a          0x4 LONG 0x35c DEFINED (__AltT4Interrupt)?ABSOLUTE (__AltT4Interrupt):DEFINED (__T4Interrupt)?ABSOLUTE (__T4Interrupt):ABSOLUTE (__DefaultInterrupt)
                  0x00014c          0x4 LONG 0x35c DEFINED (__AltT5Interrupt)?ABSOLUTE (__AltT5Interrupt):DEFINED (__T5Interrupt)?ABSOLUTE (__T5Interrupt):ABSOLUTE (__DefaultInterrupt)
                  0x00014e          0x4 LONG 0x35c DEFINED (__AltINT2Interrupt)?ABSOLUTE (__AltINT2Interrupt):DEFINED (__INT2Interrupt)?ABSOLUTE (__INT2Interrupt):ABSOLUTE (__DefaultInterrupt)
                  0x000150          0x4 LONG 0xb49c DEFINED (__AltU2RXInterrupt)?ABSOLUTE (__AltU2RXInterrupt):DEFINED (__U2RXInterrupt)?ABSOLUTE (__U2RXInterrupt):ABSOLUTE (__DefaultInterrupt)
                  0x000152          0x4 LONG 0x35c DEFINED (__AltU2TXInterrupt)?ABSOLUTE (__AltU2TXInterrupt):DEFINED (__U2TXInterrupt)?ABSOLUTE (__U2TXInterrupt):ABSOLUTE (__DefaultInterrupt)
                  0x000154          0x4 LONG 0x35c DEFINED (__AltSPI2ErrInterrupt)?ABSOLUTE (__AltSPI2ErrInterrupt):DEFINED (__SPI2ErrInterrupt)?ABSOLUTE (__SPI2ErrInterrupt):ABSOLUTE (__DefaultInterrupt)
                  0x000156          0x4 LONG 0x35c DEFINED (__AltSPI2Interrupt)?ABSOLUTE (__AltSPI2Interrupt):DEFINED (__SPI2Interrupt)?ABSOLUTE (__SPI2Interrupt):ABSOLUTE (__DefaultInterrupt)
                  0x000158          0x4 LONG 0x35c DEFINED (__AltInterrupt34)?ABSOLUTE (__AltInterrupt34):DEFINED (__Interrupt34)?ABSOLUTE (__Interrupt34):ABSOLUTE (__DefaultInterrupt)
                  0x00015a          0x4 LONG 0x35c DEFINED (__AltInterrupt35)?ABSOLUTE (__AltInterrupt35):DEFINED (__Interrupt35)?ABSOLUTE (__Interrupt35):ABSOLUTE (__DefaultInterrupt)
                  0x00015c          0x4 LONG 0x35c DEFINED (__AltInterrupt36)?ABSOLUTE (__AltInterrupt36):DEFINED (__Interrupt36)?ABSOLUTE (__Interrupt36):ABSOLUTE (__DefaultInterrupt)
                  0x00015e          0x4 LONG 0x35c DEFINED (__AltIC3Interrupt)?ABSOLUTE (__AltIC3Interrupt):DEFINED (__IC3Interrupt)?ABSOLUTE (__IC3Interrupt):ABSOLUTE (__DefaultInterrupt)
                  0x000160          0x4 LONG 0x35c DEFINED (__AltIC4Interrupt)?ABSOLUTE (__AltIC4Interrupt):DEFINED (__IC4Interrupt)?ABSOLUTE (__IC4Interrupt):ABSOLUTE (__DefaultInterrupt)
                  0x000162          0x4 LONG 0x35c DEFINED (__AltIC5Interrupt)?ABSOLUTE (__AltIC5Interrupt):DEFINED (__IC5Interrupt)?ABSOLUTE (__IC5Interrupt):ABSOLUTE (__DefaultInterrupt)
                  0x000164          0x4 LONG 0x35c DEFINED (__AltIC6Interrupt)?ABSOLUTE (__AltIC6Interrupt):DEFINED (__IC6Interrupt)?ABSOLUTE (__IC6Interrupt):ABSOLUTE (__DefaultInterrupt)
                  0x000166          0x4 LONG 0x35c DEFINED (__AltOC5Interrupt)?ABSOLUTE (__AltOC5Interrupt):DEFINED (__OC5Interrupt)?ABSOLUTE (__OC5Interrupt):ABSOLUTE (__DefaultInterrupt)
                  0x000168          0x4 LONG 0x35c DEFINED (__AltOC6Interrupt)?ABSOLUTE (__AltOC6Interrupt):DEFINED (__OC6Interrupt)?ABSOLUTE (__OC6Interrupt):ABSOLUTE (__DefaultInterrupt)
                  0x00016a          0x4 LONG 0x35c DEFINED (__AltOC7Interrupt)?ABSOLUTE (__AltOC7Interrupt):DEFINED (__OC7Interrupt)?ABSOLUTE (__OC7Interrupt):ABSOLUTE (__DefaultInterrupt)
                  0x00016c          0x4 LONG 0x35c DEFINED (__AltOC8Interrupt)?ABSOLUTE (__AltOC8Interrupt):DEFINED (__OC8Interrupt)?ABSOLUTE (__OC8Interrupt):ABSOLUTE (__DefaultInterrupt)
                  0x00016e          0x4 LONG 0x35c DEFINED (__AltPMPInterrupt)?ABSOLUTE (__AltPMPInterrupt):DEFINED (__PMPInterrupt)?ABSOLUTE (__PMPInterrupt):ABSOLUTE (__DefaultInterrupt)
                  0x000170          0x4 LONG 0x35c DEFINED (__AltInterrupt46)?ABSOLUTE (__AltInterrupt46):DEFINED (__Interrupt46)?ABSOLUTE (__Interrupt46):ABSOLUTE (__DefaultInterrupt)
                  0x000172          0x4 LONG 0x35c DEFINED (__AltInterrupt47)?ABSOLUTE (__AltInterrupt47):DEFINED (__Interrupt47)?ABSOLUTE (__Interrupt47):ABSOLUTE (__DefaultInterrupt)
                  0x000174          0x4 LONG 0x35c DEFINED (__AltInterrupt48)?ABSOLUTE (__AltInterrupt48):DEFINED (__Interrupt48)?ABSOLUTE (__Interrupt48):ABSOLUTE (__DefaultInterrupt)
                  0x000176          0x4 LONG 0x35c DEFINED (__AltSI2C2Interrupt)?ABSOLUTE (__AltSI2C2Interrupt):DEFINED (__SI2C2Interrupt)?ABSOLUTE (__SI2C2Interrupt):ABSOLUTE (__DefaultInterrupt)
                  0x000178          0x4 LONG 0x35c DEFINED (__AltMI2C2Interrupt)?ABSOLUTE (__AltMI2C2Interrupt):DEFINED (__MI2C2Interrupt)?ABSOLUTE (__MI2C2Interrupt):ABSOLUTE (__DefaultInterrupt)
                  0x00017a          0x4 LONG 0x35c DEFINED (__AltInterrupt51)?ABSOLUTE (__AltInterrupt51):DEFINED (__Interrupt51)?ABSOLUTE (__Interrupt51):ABSOLUTE (__DefaultInterrupt)
                  0x00017c          0x4 LONG 0x35c DEFINED (__AltInterrupt52)?ABSOLUTE (__AltInterrupt52):DEFINED (__Interrupt52)?ABSOLUTE (__Interrupt52):ABSOLUTE (__DefaultInterrupt)
                  0x00017e          0x4 LONG 0x35c DEFINED (__AltINT3Interrupt)?ABSOLUTE (__AltINT3Interrupt):DEFINED (__INT3Interrupt)?ABSOLUTE (__INT3Interrupt):ABSOLUTE (__DefaultInterrupt)
                  0x000180          0x4 LONG 0x35c DEFINED (__AltINT4Interrupt)?ABSOLUTE (__AltINT4Interrupt):DEFINED (__INT4Interrupt)?ABSOLUTE (__INT4Interrupt):ABSOLUTE (__DefaultInterrupt)
                  0x000182          0x4 LONG 0x35c DEFINED (__AltInterrupt55)?ABSOLUTE (__AltInterrupt55):DEFINED (__Interrupt55)?ABSOLUTE (__Interrupt55):ABSOLUTE (__DefaultInterrupt)
                  0x000184          0x4 LONG 0x35c DEFINED (__AltInterrupt56)?ABSOLUTE (__AltInterrupt56):DEFINED (__Interrupt56)?ABSOLUTE (__Interrupt56):ABSOLUTE (__DefaultInterrupt)
                  0x000186          0x4 LONG 0x35c DEFINED (__AltInterrupt57)?ABSOLUTE (__AltInterrupt57):DEFINED (__Interrupt57)?ABSOLUTE (__Interrupt57):ABSOLUTE (__DefaultInterrupt)
                  0x000188          0x4 LONG 0x35c DEFINED (__AltInterrupt58)?ABSOLUTE (__AltInterrupt58):DEFINED (__Interrupt58)?ABSOLUTE (__Interrupt58):ABSOLUTE (__DefaultInterrupt)
                  0x00018a          0x4 LONG 0x35c DEFINED (__AltInterrupt59)?ABSOLUTE (__AltInterrupt59):DEFINED (__Interrupt59)?ABSOLUTE (__Interrupt59):ABSOLUTE (__DefaultInterrupt)
                  0x00018c          0x4 LONG 0x35c DEFINED (__AltInterrupt60)?ABSOLUTE (__AltInterrupt60):DEFINED (__Interrupt60)?ABSOLUTE (__Interrupt60):ABSOLUTE (__DefaultInterrupt)
                  0x00018e          0x4 LONG 0x35c DEFINED (__AltInterrupt61)?ABSOLUTE (__AltInterrupt61):DEFINED (__Interrupt61)?ABSOLUTE (__Interrupt61):ABSOLUTE (__DefaultInterrupt)
                  0x000190          0x4 LONG 0x35c DEFINED (__AltRTCCInterrupt)?ABSOLUTE (__AltRTCCInterrupt):DEFINED (__RTCCInterrupt)?ABSOLUTE (__RTCCInterrupt):ABSOLUTE (__DefaultInterrupt)
                  0x000192          0x4 LONG 0x35c DEFINED (__AltInterrupt63)?ABSOLUTE (__AltInterrupt63):DEFINED (__Interrupt63)?ABSOLUTE (__Interrupt63):ABSOLUTE (__DefaultInterrupt)
                  0x000194          0x4 LONG 0x35c DEFINED (__AltInterrupt64)?ABSOLUTE (__AltInterrupt64):DEFINED (__Interrupt64)?ABSOLUTE (__Interrupt64):ABSOLUTE (__DefaultInterrupt)
                  0x000196          0x4 LONG 0x35c DEFINED (__AltU1ErrInterrupt)?ABSOLUTE (__AltU1ErrInterrupt):DEFINED (__U1ErrInterrupt)?ABSOLUTE (__U1ErrInterrupt):ABSOLUTE (__DefaultInterrupt)
                  0x000198          0x4 LONG 0x35c DEFINED (__AltU2ErrInterrupt)?ABSOLUTE (__AltU2ErrInterrupt):DEFINED (__U2ErrInterrupt)?ABSOLUTE (__U2ErrInterrupt):ABSOLUTE (__DefaultInterrupt)
                  0x00019a          0x4 LONG 0x35c DEFINED (__AltCRCInterrupt)?ABSOLUTE (__AltCRCInterrupt):DEFINED (__CRCInterrupt)?ABSOLUTE (__CRCInterrupt):ABSOLUTE (__DefaultInterrupt)
                  0x00019c          0x4 LONG 0x35c DEFINED (__AltInterrupt68)?ABSOLUTE (__AltInterrupt68):DEFINED (__Interrupt68)?ABSOLUTE (__Interrupt68):ABSOLUTE (__DefaultInterrupt)
                  0x00019e          0x4 LONG 0x35c DEFINED (__AltInterrupt69)?ABSOLUTE (__AltInterrupt69):DEFINED (__Interrupt69)?ABSOLUTE (__Interrupt69):ABSOLUTE (__DefaultInterrupt)
                  0x0001a0          0x4 LONG 0x35c DEFINED (__AltInterrupt70)?ABSOLUTE (__AltInterrupt70):DEFINED (__Interrupt70)?ABSOLUTE (__Interrupt70):ABSOLUTE (__DefaultInterrupt)
                  0x0001a2          0x4 LONG 0x35c DEFINED (__AltInterrupt71)?ABSOLUTE (__AltInterrupt71):DEFINED (__Interrupt71)?ABSOLUTE (__Interrupt71):ABSOLUTE (__DefaultInterrupt)
                  0x0001a4          0x4 LONG 0x35c DEFINED (__AltLVDInterrupt)?ABSOLUTE (__AltLVDInterrupt):DEFINED (__LVDInterrupt)?ABSOLUTE (__LVDInterrupt):ABSOLUTE (__DefaultInterrupt)
                  0x0001a6          0x4 LONG 0x35c DEFINED (__AltInterrupt73)?ABSOLUTE (__AltInterrupt73):DEFINED (__Interrupt73)?ABSOLUTE (__Interrupt73):ABSOLUTE (__DefaultInterrupt)
                  0x0001a8          0x4 LONG 0x35c DEFINED (__AltInterrupt74)?ABSOLUTE (__AltInterrupt74):DEFINED (__Interrupt74)?ABSOLUTE (__Interrupt74):ABSOLUTE (__DefaultInterrupt)
                  0x0001aa          0x4 LONG 0x35c DEFINED (__AltInterrupt75)?ABSOLUTE (__AltInterrupt75):DEFINED (__Interrupt75)?ABSOLUTE (__Interrupt75):ABSOLUTE (__DefaultInterrupt)
                  0x0001ac          0x4 LONG 0x35c DEFINED (__AltInterrupt76)?ABSOLUTE (__AltInterrupt76):DEFINED (__Interrupt76)?ABSOLUTE (__Interrupt76):ABSOLUTE (__DefaultInterrupt)
                  0x0001ae          0x4 LONG 0x35c DEFINED (__AltCTMUInterrupt)?ABSOLUTE (__AltCTMUInterrupt):DEFINED (__CTMUInterrupt)?ABSOLUTE (__CTMUInterrupt):ABSOLUTE (__DefaultInterrupt)
                  0x0001b0          0x4 LONG 0x35c DEFINED (__AltInterrupt78)?ABSOLUTE (__AltInterrupt78):DEFINED (__Interrupt78)?ABSOLUTE (__Interrupt78):ABSOLUTE (__DefaultInterrupt)
                  0x0001b2          0x4 LONG 0x35c DEFINED (__AltInterrupt79)?ABSOLUTE (__AltInterrupt79):DEFINED (__Interrupt79)?ABSOLUTE (__Interrupt79):ABSOLUTE (__DefaultInterrupt)
                  0x0001b4          0x4 LONG 0x35c DEFINED (__AltInterrupt80)?ABSOLUTE (__AltInterrupt80):DEFINED (__Interrupt80)?ABSOLUTE (__Interrupt80):ABSOLUTE (__DefaultInterrupt)
                  0x0001b6          0x4 LONG 0x35c DEFINED (__AltU3ErrInterrupt)?ABSOLUTE (__AltU3ErrInterrupt):DEFINED (__U3ErrInterrupt)?ABSOLUTE (__U3ErrInterrupt):ABSOLUTE (__DefaultInterrupt)
                  0x0001b8          0x4 LONG 0x35c DEFINED (__AltU3RXInterrupt)?ABSOLUTE (__AltU3RXInterrupt):DEFINED (__U3RXInterrupt)?ABSOLUTE (__U3RXInterrupt):ABSOLUTE (__DefaultInterrupt)
                  0x0001ba          0x4 LONG 0x35c DEFINED (__AltU3TXInterrupt)?ABSOLUTE (__AltU3TXInterrupt):DEFINED (__U3TXInterrupt)?ABSOLUTE (__U3TXInterrupt):ABSOLUTE (__DefaultInterrupt)
                  0x0001bc          0x4 LONG 0x35c DEFINED (__AltSI2C3Interrupt)?ABSOLUTE (__AltSI2C3Interrupt):DEFINED (__SI2C3Interrupt)?ABSOLUTE (__SI2C3Interrupt):ABSOLUTE (__DefaultInterrupt)
                  0x0001be          0x4 LONG 0x35c DEFINED (__AltMI2C3Interrupt)?ABSOLUTE (__AltMI2C3Interrupt):DEFINED (__MI2C3Interrupt)?ABSOLUTE (__MI2C3Interrupt):ABSOLUTE (__DefaultInterrupt)
                  0x0001c0          0x4 LONG 0x35c DEFINED (__AltUSB1Interrupt)?ABSOLUTE (__AltUSB1Interrupt):DEFINED (__USB1Interrupt)?ABSOLUTE (__USB1Interrupt):ABSOLUTE (__DefaultInterrupt)
                  0x0001c2          0x4 LONG 0x35c DEFINED (__AltU4ErrInterrupt)?ABSOLUTE (__AltU4ErrInterrupt):DEFINED (__U4ErrInterrupt)?ABSOLUTE (__U4ErrInterrupt):ABSOLUTE (__DefaultInterrupt)
                  0x0001c4          0x4 LONG 0x35c DEFINED (__AltU4RXInterrupt)?ABSOLUTE (__AltU4RXInterrupt):DEFINED (__U4RXInterrupt)?ABSOLUTE (__U4RXInterrupt):ABSOLUTE (__DefaultInterrupt)
                  0x0001c6          0x4 LONG 0x35c DEFINED (__AltU4TXInterrupt)?ABSOLUTE (__AltU4TXInterrupt):DEFINED (__U4TXInterrupt)?ABSOLUTE (__U4TXInterrupt):ABSOLUTE (__DefaultInterrupt)
                  0x0001c8          0x4 LONG 0x35c DEFINED (__AltSPI3ErrInterrupt)?ABSOLUTE (__AltSPI3ErrInterrupt):DEFINED (__SPI3ErrInterrupt)?ABSOLUTE (__SPI3ErrInterrupt):ABSOLUTE (__DefaultInterrupt)
                  0x0001ca          0x4 LONG 0x35c DEFINED (__AltSPI3Interrupt)?ABSOLUTE (__AltSPI3Interrupt):DEFINED (__SPI3Interrupt)?ABSOLUTE (__SPI3Interrupt):ABSOLUTE (__DefaultInterrupt)
                  0x0001cc          0x4 LONG 0x35c DEFINED (__AltOC9Interrupt)?ABSOLUTE (__AltOC9Interrupt):DEFINED (__OC9Interrupt)?ABSOLUTE (__OC9Interrupt):ABSOLUTE (__DefaultInterrupt)
                  0x0001ce          0x4 LONG 0x35c DEFINED (__AltIC9Interrupt)?ABSOLUTE (__AltIC9Interrupt):DEFINED (__IC9Interrupt)?ABSOLUTE (__IC9Interrupt):ABSOLUTE (__DefaultInterrupt)
                  0x0001d0          0x4 LONG 0x35c DEFINED (__AltInterrupt94)?ABSOLUTE (__AltInterrupt94):DEFINED (__Interrupt94)?ABSOLUTE (__Interrupt94):ABSOLUTE (__DefaultInterrupt)
                  0x0001d2          0x4 LONG 0x35c DEFINED (__AltInterrupt95)?ABSOLUTE (__AltInterrupt95):DEFINED (__Interrupt95)?ABSOLUTE (__Interrupt95):ABSOLUTE (__DefaultInterrupt)
                  0x0001d4          0x4 LONG 0x35c DEFINED (__AltInterrupt96)?ABSOLUTE (__AltInterrupt96):DEFINED (__Interrupt96)?ABSOLUTE (__Interrupt96):ABSOLUTE (__DefaultInterrupt)
                  0x0001d6          0x4 LONG 0x35c DEFINED (__AltInterrupt97)?ABSOLUTE (__AltInterrupt97):DEFINED (__Interrupt97)?ABSOLUTE (__Interrupt97):ABSOLUTE (__DefaultInterrupt)
                  0x0001d8          0x4 LONG 0x35c DEFINED (__AltInterrupt98)?ABSOLUTE (__AltInterrupt98):DEFINED (__Interrupt98)?ABSOLUTE (__Interrupt98):ABSOLUTE (__DefaultInterrupt)
                  0x0001da          0x4 LONG 0x35c DEFINED (__AltInterrupt99)?ABSOLUTE (__AltInterrupt99):DEFINED (__Interrupt99)?ABSOLUTE (__Interrupt99):ABSOLUTE (__DefaultInterrupt)
                  0x0001dc          0x4 LONG 0x35c DEFINED (__AltGFX1Interrupt)?ABSOLUTE (__AltGFX1Interrupt):DEFINED (__GFX1Interrupt)?ABSOLUTE (__GFX1Interrupt):ABSOLUTE (__DefaultInterrupt)
                  0x0001de          0x4 LONG 0x35c DEFINED (__AltInterrupt101)?ABSOLUTE (__AltInterrupt101):DEFINED (__Interrupt101)?ABSOLUTE (__Interrupt101):ABSOLUTE (__DefaultInterrupt)
                  0x0001e0          0x4 LONG 0x35c DEFINED (__AltInterrupt102)?ABSOLUTE (__AltInterrupt102):DEFINED (__Interrupt102)?ABSOLUTE (__Interrupt102):ABSOLUTE (__DefaultInterrupt)
                  0x0001e2          0x4 LONG 0x35c DEFINED (__AltInterrupt103)?ABSOLUTE (__AltInterrupt103):DEFINED (__Interrupt103)?ABSOLUTE (__Interrupt103):ABSOLUTE (__DefaultInterrupt)
                  0x0001e4          0x4 LONG 0x35c DEFINED (__AltInterrupt104)?ABSOLUTE (__AltInterrupt104):DEFINED (__Interrupt104)?ABSOLUTE (__Interrupt104):ABSOLUTE (__DefaultInterrupt)
                  0x0001e6          0x4 LONG 0x35c DEFINED (__AltInterrupt105)?ABSOLUTE (__AltInterrupt105):DEFINED (__Interrupt105)?ABSOLUTE (__Interrupt105):ABSOLUTE (__DefaultInterrupt)
                  0x0001e8          0x4 LONG 0x35c DEFINED (__AltInterrupt106)?ABSOLUTE (__AltInterrupt106):DEFINED (__Interrupt106)?ABSOLUTE (__Interrupt106):ABSOLUTE (__DefaultInterrupt)
                  0x0001ea          0x4 LONG 0x35c DEFINED (__AltInterrupt107)?ABSOLUTE (__AltInterrupt107):DEFINED (__Interrupt107)?ABSOLUTE (__Interrupt107):ABSOLUTE (__DefaultInterrupt)
                  0x0001ec          0x4 LONG 0x35c DEFINED (__AltInterrupt108)?ABSOLUTE (__AltInterrupt108):DEFINED (__Interrupt108)?ABSOLUTE (__Interrupt108):ABSOLUTE (__DefaultInterrupt)
                  0x0001ee          0x4 LONG 0x35c DEFINED (__AltInterrupt109)?ABSOLUTE (__AltInterrupt109):DEFINED (__Interrupt109)?ABSOLUTE (__Interrupt109):ABSOLUTE (__DefaultInterrupt)
                  0x0001f0          0x4 LONG 0x35c DEFINED (__AltInterrupt110)?ABSOLUTE (__AltInterrupt110):DEFINED (__Interrupt110)?ABSOLUTE (__Interrupt110):ABSOLUTE (__DefaultInterrupt)
                  0x0001f2          0x4 LONG 0x35c DEFINED (__AltInterrupt111)?ABSOLUTE (__AltInterrupt111):DEFINED (__Interrupt111)?ABSOLUTE (__Interrupt111):ABSOLUTE (__DefaultInterrupt)
                  0x0001f4          0x4 LONG 0x35c DEFINED (__AltInterrupt112)?ABSOLUTE (__AltInterrupt112):DEFINED (__Interrupt112)?ABSOLUTE (__Interrupt112):ABSOLUTE (__DefaultInterrupt)
                  0x0001f6          0x4 LONG 0x35c DEFINED (__AltInterrupt113)?ABSOLUTE (__AltInterrupt113):DEFINED (__Interrupt113)?ABSOLUTE (__Interrupt113):ABSOLUTE (__DefaultInterrupt)
                  0x0001f8          0x4 LONG 0x35c DEFINED (__AltInterrupt114)?ABSOLUTE (__AltInterrupt114):DEFINED (__Interrupt114)?ABSOLUTE (__Interrupt114):ABSOLUTE (__DefaultInterrupt)
                  0x0001fa          0x4 LONG 0x35c DEFINED (__AltInterrupt115)?ABSOLUTE (__AltInterrupt115):DEFINED (__Interrupt115)?ABSOLUTE (__Interrupt115):ABSOLUTE (__DefaultInterrupt)
                  0x0001fc          0x4 LONG 0x35c DEFINED (__AltInterrupt116)?ABSOLUTE (__AltInterrupt116):DEFINED (__Interrupt116)?ABSOLUTE (__Interrupt116):ABSOLUTE (__DefaultInterrupt)
                  0x0001fe          0x4 LONG 0x35c DEFINED (__AltInterrupt117)?ABSOLUTE (__AltInterrupt117):DEFINED (__Interrupt117)?ABSOLUTE (__Interrupt117):ABSOLUTE (__DefaultInterrupt)
                    0x0000                  WREG0 = 0x0
                    0x0000                  _WREG0 = 0x0
                    0x0002                  WREG1 = 0x2
                    0x0002                  _WREG1 = 0x2
                    0x0004                  WREG2 = 0x4
                    0x0004                  _WREG2 = 0x4
                    0x0006                  WREG3 = 0x6
                    0x0006                  _WREG3 = 0x6
                    0x0008                  WREG4 = 0x8
                    0x0008                  _WREG4 = 0x8
                    0x000a                  WREG5 = 0xa
                    0x000a                  _WREG5 = 0xa
                    0x000c                  WREG6 = 0xc
                    0x000c                  _WREG6 = 0xc
                    0x000e                  WREG7 = 0xe
                    0x000e                  _WREG7 = 0xe
                    0x0010                  WREG8 = 0x10
                    0x0010                  _WREG8 = 0x10
                    0x0012                  WREG9 = 0x12
                    0x0012                  _WREG9 = 0x12
                    0x0014                  WREG10 = 0x14
                    0x0014                  _WREG10 = 0x14
                    0x0016                  WREG11 = 0x16
                    0x0016                  _WREG11 = 0x16
                    0x0018                  WREG12 = 0x18
                    0x0018                  _WREG12 = 0x18
                    0x001a                  WREG13 = 0x1a
                    0x001a                  _WREG13 = 0x1a
                    0x001c                  WREG14 = 0x1c
                    0x001c                  _WREG14 = 0x1c
                    0x001e                  WREG15 = 0x1e
                    0x001e                  _WREG15 = 0x1e
                    0x0020                  SPLIM = 0x20
                    0x0020                  _SPLIM = 0x20
                    0x002e                  PCL = 0x2e
                    0x002e                  _PCL = 0x2e
                    0x0030                  PCH = 0x30
                    0x0030                  _PCH = 0x30
                    0x0032                  DSRPAG = 0x32
                    0x0032                  _DSRPAG = 0x32
                    0x0034                  DSWPAG = 0x34
                    0x0034                  _DSWPAG = 0x34
                    0x0036                  RCOUNT = 0x36
                    0x0036                  _RCOUNT = 0x36
                    0x0042                  SR = 0x42
                    0x0042                  _SR = 0x42
                    0x0042                  _SRbits = 0x42
                    0x0044                  CORCON = 0x44
                    0x0044                  _CORCON = 0x44
                    0x0044                  _CORCONbits = 0x44
                    0x0052                  DISICNT = 0x52
                    0x0052                  _DISICNT = 0x52
                    0x0054                  TBLPAG = 0x54
                    0x0054                  _TBLPAG = 0x54
                    0x0056                  CNPD1 = 0x56
                    0x0056                  _CNPD1 = 0x56
                    0x0056                  _CNPD1bits = 0x56
                    0x0058                  CNPD2 = 0x58
                    0x0058                  _CNPD2 = 0x58
                    0x0058                  _CNPD2bits = 0x58
                    0x005a                  CNPD3 = 0x5a
                    0x005a                  _CNPD3 = 0x5a
                    0x005a                  _CNPD3bits = 0x5a
                    0x005c                  CNPD4 = 0x5c
                    0x005c                  _CNPD4 = 0x5c
                    0x005c                  _CNPD4bits = 0x5c
                    0x005e                  CNPD5 = 0x5e
                    0x005e                  _CNPD5 = 0x5e
                    0x005e                  _CNPD5bits = 0x5e
                    0x0060                  CNPD6 = 0x60
                    0x0060                  _CNPD6 = 0x60
                    0x0060                  _CNPD6bits = 0x60
                    0x0062                  CNEN1 = 0x62
                    0x0062                  _CNEN1 = 0x62
                    0x0062                  _CNEN1bits = 0x62
                    0x0064                  CNEN2 = 0x64
                    0x0064                  _CNEN2 = 0x64
                    0x0064                  _CNEN2bits = 0x64
                    0x0066                  CNEN3 = 0x66
                    0x0066                  _CNEN3 = 0x66
                    0x0066                  _CNEN3bits = 0x66
                    0x0068                  CNEN4 = 0x68
                    0x0068                  _CNEN4 = 0x68
                    0x0068                  _CNEN4bits = 0x68
                    0x006a                  CNEN5 = 0x6a
                    0x006a                  _CNEN5 = 0x6a
                    0x006a                  _CNEN5bits = 0x6a
                    0x006c                  CNEN6 = 0x6c
                    0x006c                  _CNEN6 = 0x6c
                    0x006c                  _CNEN6bits = 0x6c
                    0x006e                  CNPU1 = 0x6e
                    0x006e                  _CNPU1 = 0x6e
                    0x006e                  _CNPU1bits = 0x6e
                    0x0070                  CNPU2 = 0x70
                    0x0070                  _CNPU2 = 0x70
                    0x0070                  _CNPU2bits = 0x70
                    0x0072                  CNPU3 = 0x72
                    0x0072                  _CNPU3 = 0x72
                    0x0072                  _CNPU3bits = 0x72
                    0x0074                  CNPU4 = 0x74
                    0x0074                  _CNPU4 = 0x74
                    0x0074                  _CNPU4bits = 0x74
                    0x0076                  CNPU5 = 0x76
                    0x0076                  _CNPU5 = 0x76
                    0x0076                  _CNPU5bits = 0x76
                    0x0078                  CNPU6 = 0x78
                    0x0078                  _CNPU6 = 0x78
                    0x0078                  _CNPU6bits = 0x78
                    0x0080                  INTCON1 = 0x80
                    0x0080                  _INTCON1 = 0x80
                    0x0080                  _INTCON1bits = 0x80
                    0x0082                  INTCON2 = 0x82
                    0x0082                  _INTCON2 = 0x82
                    0x0082                  _INTCON2bits = 0x82
                    0x0084                  IFS0 = 0x84
                    0x0084                  _IFS0 = 0x84
                    0x0084                  _IFS0bits = 0x84
                    0x0086                  IFS1 = 0x86
                    0x0086                  _IFS1 = 0x86
                    0x0086                  _IFS1bits = 0x86
                    0x0088                  IFS2 = 0x88
                    0x0088                  _IFS2 = 0x88
                    0x0088                  _IFS2bits = 0x88
                    0x008a                  IFS3 = 0x8a
                    0x008a                  _IFS3 = 0x8a
                    0x008a                  _IFS3bits = 0x8a
                    0x008c                  IFS4 = 0x8c
                    0x008c                  _IFS4 = 0x8c
                    0x008c                  _IFS4bits = 0x8c
                    0x008e                  IFS5 = 0x8e
                    0x008e                  _IFS5 = 0x8e
                    0x008e                  _IFS5bits = 0x8e
                    0x0090                  IFS6 = 0x90
                    0x0090                  _IFS6 = 0x90
                    0x0090                  _IFS6bits = 0x90
                    0x0094                  IEC0 = 0x94
                    0x0094                  _IEC0 = 0x94
                    0x0094                  _IEC0bits = 0x94
                    0x0096                  IEC1 = 0x96
                    0x0096                  _IEC1 = 0x96
                    0x0096                  _IEC1bits = 0x96
                    0x0098                  IEC2 = 0x98
                    0x0098                  _IEC2 = 0x98
                    0x0098                  _IEC2bits = 0x98
                    0x009a                  IEC3 = 0x9a
                    0x009a                  _IEC3 = 0x9a
                    0x009a                  _IEC3bits = 0x9a
                    0x009c                  IEC4 = 0x9c
                    0x009c                  _IEC4 = 0x9c
                    0x009c                  _IEC4bits = 0x9c
                    0x009e                  IEC5 = 0x9e
                    0x009e                  _IEC5 = 0x9e
                    0x009e                  _IEC5bits = 0x9e
                    0x00a0                  IEC6 = 0xa0
                    0x00a0                  _IEC6 = 0xa0
                    0x00a0                  _IEC6bits = 0xa0
                    0x00a4                  IPC0 = 0xa4
                    0x00a4                  _IPC0 = 0xa4
                    0x00a4                  _IPC0bits = 0xa4
                    0x00a6                  IPC1 = 0xa6
                    0x00a6                  _IPC1 = 0xa6
                    0x00a6                  _IPC1bits = 0xa6
                    0x00a8                  IPC2 = 0xa8
                    0x00a8                  _IPC2 = 0xa8
                    0x00a8                  _IPC2bits = 0xa8
                    0x00aa                  IPC3 = 0xaa
                    0x00aa                  _IPC3 = 0xaa
                    0x00aa                  _IPC3bits = 0xaa
                    0x00ac                  IPC4 = 0xac
                    0x00ac                  _IPC4 = 0xac
                    0x00ac                  _IPC4bits = 0xac
                    0x00ae                  IPC5 = 0xae
                    0x00ae                  _IPC5 = 0xae
                    0x00ae                  _IPC5bits = 0xae
                    0x00b0                  IPC6 = 0xb0
                    0x00b0                  _IPC6 = 0xb0
                    0x00b0                  _IPC6bits = 0xb0
                    0x00b2                  IPC7 = 0xb2
                    0x00b2                  _IPC7 = 0xb2
                    0x00b2                  _IPC7bits = 0xb2
                    0x00b4                  IPC8 = 0xb4
                    0x00b4                  _IPC8 = 0xb4
                    0x00b4                  _IPC8bits = 0xb4
                    0x00b6                  IPC9 = 0xb6
                    0x00b6                  _IPC9 = 0xb6
                    0x00b6                  _IPC9bits = 0xb6
                    0x00b8                  IPC10 = 0xb8
                    0x00b8                  _IPC10 = 0xb8
                    0x00b8                  _IPC10bits = 0xb8
                    0x00ba                  IPC11 = 0xba
                    0x00ba                  _IPC11 = 0xba
                    0x00ba                  _IPC11bits = 0xba
                    0x00bc                  IPC12 = 0xbc
                    0x00bc                  _IPC12 = 0xbc
                    0x00bc                  _IPC12bits = 0xbc
                    0x00be                  IPC13 = 0xbe
                    0x00be                  _IPC13 = 0xbe
                    0x00be                  _IPC13bits = 0xbe
                    0x00c2                  IPC15 = 0xc2
                    0x00c2                  _IPC15 = 0xc2
                    0x00c2                  _IPC15bits = 0xc2
                    0x00c4                  IPC16 = 0xc4
                    0x00c4                  _IPC16 = 0xc4
                    0x00c4                  _IPC16bits = 0xc4
                    0x00c8                  IPC18 = 0xc8
                    0x00c8                  _IPC18 = 0xc8
                    0x00c8                  _IPC18bits = 0xc8
                    0x00ca                  IPC19 = 0xca
                    0x00ca                  _IPC19 = 0xca
                    0x00ca                  _IPC19bits = 0xca
                    0x00cc                  IPC20 = 0xcc
                    0x00cc                  _IPC20 = 0xcc
                    0x00cc                  _IPC20bits = 0xcc
                    0x00ce                  IPC21 = 0xce
                    0x00ce                  _IPC21 = 0xce
                    0x00ce                  _IPC21bits = 0xce
                    0x00d0                  IPC22 = 0xd0
                    0x00d0                  _IPC22 = 0xd0
                    0x00d0                  _IPC22bits = 0xd0
                    0x00d2                  IPC23 = 0xd2
                    0x00d2                  _IPC23 = 0xd2
                    0x00d2                  _IPC23bits = 0xd2
                    0x00d6                  IPC25 = 0xd6
                    0x00d6                  _IPC25 = 0xd6
                    0x00d6                  _IPC25bits = 0xd6
                    0x00e0                  INTTREG = 0xe0
                    0x00e0                  _INTTREG = 0xe0
                    0x00e0                  _INTTREGbits = 0xe0
                    0x0100                  TMR1 = 0x100
                    0x0100                  _TMR1 = 0x100
                    0x0102                  PR1 = 0x102
                    0x0102                  _PR1 = 0x102
                    0x0104                  T1CON = 0x104
                    0x0104                  _T1CON = 0x104
                    0x0104                  _T1CONbits = 0x104
                    0x0106                  TMR2 = 0x106
                    0x0106                  _TMR2 = 0x106
                    0x0108                  TMR3HLD = 0x108
                    0x0108                  _TMR3HLD = 0x108
                    0x010a                  TMR3 = 0x10a
                    0x010a                  _TMR3 = 0x10a
                    0x010c                  PR2 = 0x10c
                    0x010c                  _PR2 = 0x10c
                    0x010e                  PR3 = 0x10e
                    0x010e                  _PR3 = 0x10e
                    0x0110                  T2CON = 0x110
                    0x0110                  _T2CON = 0x110
                    0x0110                  _T2CONbits = 0x110
                    0x0112                  T3CON = 0x112
                    0x0112                  _T3CON = 0x112
                    0x0112                  _T3CONbits = 0x112
                    0x0114                  TMR4 = 0x114
                    0x0114                  _TMR4 = 0x114
                    0x0116                  TMR5HLD = 0x116
                    0x0116                  _TMR5HLD = 0x116
                    0x0118                  TMR5 = 0x118
                    0x0118                  _TMR5 = 0x118
                    0x011a                  PR4 = 0x11a
                    0x011a                  _PR4 = 0x11a
                    0x011c                  PR5 = 0x11c
                    0x011c                  _PR5 = 0x11c
                    0x011e                  T4CON = 0x11e
                    0x011e                  _T4CON = 0x11e
                    0x011e                  _T4CONbits = 0x11e
                    0x0120                  T5CON = 0x120
                    0x0120                  _T5CON = 0x120
                    0x0120                  _T5CONbits = 0x120
                    0x0140                  IC1CON1 = 0x140
                    0x0140                  _IC1CON1 = 0x140
                    0x0140                  _IC1CON1bits = 0x140
                    0x0142                  IC1CON2 = 0x142
                    0x0142                  _IC1CON2 = 0x142
                    0x0142                  _IC1CON2bits = 0x142
                    0x0144                  IC1BUF = 0x144
                    0x0144                  _IC1BUF = 0x144
                    0x0146                  IC1TMR = 0x146
                    0x0146                  _IC1TMR = 0x146
                    0x0148                  IC2CON1 = 0x148
                    0x0148                  _IC2CON1 = 0x148
                    0x0148                  _IC2CON1bits = 0x148
                    0x014a                  IC2CON2 = 0x14a
                    0x014a                  _IC2CON2 = 0x14a
                    0x014a                  _IC2CON2bits = 0x14a
                    0x014c                  IC2BUF = 0x14c
                    0x014c                  _IC2BUF = 0x14c
                    0x014e                  IC2TMR = 0x14e
                    0x014e                  _IC2TMR = 0x14e
                    0x0150                  IC3CON1 = 0x150
                    0x0150                  _IC3CON1 = 0x150
                    0x0150                  _IC3CON1bits = 0x150
                    0x0152                  IC3CON2 = 0x152
                    0x0152                  _IC3CON2 = 0x152
                    0x0152                  _IC3CON2bits = 0x152
                    0x0154                  IC3BUF = 0x154
                    0x0154                  _IC3BUF = 0x154
                    0x0156                  IC3TMR = 0x156
                    0x0156                  _IC3TMR = 0x156
                    0x0158                  IC4CON1 = 0x158
                    0x0158                  _IC4CON1 = 0x158
                    0x0158                  _IC4CON1bits = 0x158
                    0x015a                  IC4CON2 = 0x15a
                    0x015a                  _IC4CON2 = 0x15a
                    0x015a                  _IC4CON2bits = 0x15a
                    0x015c                  IC4BUF = 0x15c
                    0x015c                  _IC4BUF = 0x15c
                    0x015e                  IC4TMR = 0x15e
                    0x015e                  _IC4TMR = 0x15e
                    0x0160                  IC5CON1 = 0x160
                    0x0160                  _IC5CON1 = 0x160
                    0x0160                  _IC5CON1bits = 0x160
                    0x0162                  IC5CON2 = 0x162
                    0x0162                  _IC5CON2 = 0x162
                    0x0162                  _IC5CON2bits = 0x162
                    0x0164                  IC5BUF = 0x164
                    0x0164                  _IC5BUF = 0x164
                    0x0166                  IC5TMR = 0x166
                    0x0166                  _IC5TMR = 0x166
                    0x0168                  IC6CON1 = 0x168
                    0x0168                  _IC6CON1 = 0x168
                    0x0168                  _IC6CON1bits = 0x168
                    0x016a                  IC6CON2 = 0x16a
                    0x016a                  _IC6CON2 = 0x16a
                    0x016a                  _IC6CON2bits = 0x16a
                    0x016c                  IC6BUF = 0x16c
                    0x016c                  _IC6BUF = 0x16c
                    0x016e                  IC6TMR = 0x16e
                    0x016e                  _IC6TMR = 0x16e
                    0x0170                  IC7CON1 = 0x170
                    0x0170                  _IC7CON1 = 0x170
                    0x0170                  _IC7CON1bits = 0x170
                    0x0172                  IC7CON2 = 0x172
                    0x0172                  _IC7CON2 = 0x172
                    0x0172                  _IC7CON2bits = 0x172
                    0x0174                  IC7BUF = 0x174
                    0x0174                  _IC7BUF = 0x174
                    0x0176                  IC7TMR = 0x176
                    0x0176                  _IC7TMR = 0x176
                    0x0178                  IC8CON1 = 0x178
                    0x0178                  _IC8CON1 = 0x178
                    0x0178                  _IC8CON1bits = 0x178
                    0x017a                  IC8CON2 = 0x17a
                    0x017a                  _IC8CON2 = 0x17a
                    0x017a                  _IC8CON2bits = 0x17a
                    0x017c                  IC8BUF = 0x17c
                    0x017c                  _IC8BUF = 0x17c
                    0x017e                  IC8TMR = 0x17e
                    0x017e                  _IC8TMR = 0x17e
                    0x0180                  IC9CON1 = 0x180
                    0x0180                  _IC9CON1 = 0x180
                    0x0180                  _IC9CON1bits = 0x180
                    0x0182                  IC9CON2 = 0x182
                    0x0182                  _IC9CON2 = 0x182
                    0x0182                  _IC9CON2bits = 0x182
                    0x0184                  IC9BUF = 0x184
                    0x0184                  _IC9BUF = 0x184
                    0x0186                  IC9TMR = 0x186
                    0x0186                  _IC9TMR = 0x186
                    0x0190                  OC1CON1 = 0x190
                    0x0190                  _OC1CON1 = 0x190
                    0x0190                  _OC1CON1bits = 0x190
                    0x0192                  OC1CON2 = 0x192
                    0x0192                  _OC1CON2 = 0x192
                    0x0192                  _OC1CON2bits = 0x192
                    0x0194                  OC1RS = 0x194
                    0x0194                  _OC1RS = 0x194
                    0x0196                  OC1R = 0x196
                    0x0196                  _OC1R = 0x196
                    0x0198                  OC1TMR = 0x198
                    0x0198                  _OC1TMR = 0x198
                    0x019a                  OC2CON1 = 0x19a
                    0x019a                  _OC2CON1 = 0x19a
                    0x019a                  _OC2CON1bits = 0x19a
                    0x019c                  OC2CON2 = 0x19c
                    0x019c                  _OC2CON2 = 0x19c
                    0x019c                  _OC2CON2bits = 0x19c
                    0x019e                  OC2RS = 0x19e
                    0x019e                  _OC2RS = 0x19e
                    0x01a0                  OC2R = 0x1a0
                    0x01a0                  _OC2R = 0x1a0
                    0x01a2                  OC2TMR = 0x1a2
                    0x01a2                  _OC2TMR = 0x1a2
                    0x01a4                  OC3CON1 = 0x1a4
                    0x01a4                  _OC3CON1 = 0x1a4
                    0x01a4                  _OC3CON1bits = 0x1a4
                    0x01a6                  OC3CON2 = 0x1a6
                    0x01a6                  _OC3CON2 = 0x1a6
                    0x01a6                  _OC3CON2bits = 0x1a6
                    0x01a8                  OC3RS = 0x1a8
                    0x01a8                  _OC3RS = 0x1a8
                    0x01aa                  OC3R = 0x1aa
                    0x01aa                  _OC3R = 0x1aa
                    0x01ac                  OC3TMR = 0x1ac
                    0x01ac                  _OC3TMR = 0x1ac
                    0x01ae                  OC4CON1 = 0x1ae
                    0x01ae                  _OC4CON1 = 0x1ae
                    0x01ae                  _OC4CON1bits = 0x1ae
                    0x01b0                  OC4CON2 = 0x1b0
                    0x01b0                  _OC4CON2 = 0x1b0
                    0x01b0                  _OC4CON2bits = 0x1b0
                    0x01b2                  OC4RS = 0x1b2
                    0x01b2                  _OC4RS = 0x1b2
                    0x01b4                  OC4R = 0x1b4
                    0x01b4                  _OC4R = 0x1b4
                    0x01b6                  OC4TMR = 0x1b6
                    0x01b6                  _OC4TMR = 0x1b6
                    0x01b8                  OC5CON1 = 0x1b8
                    0x01b8                  _OC5CON1 = 0x1b8
                    0x01b8                  _OC5CON1bits = 0x1b8
                    0x01ba                  OC5CON2 = 0x1ba
                    0x01ba                  _OC5CON2 = 0x1ba
                    0x01ba                  _OC5CON2bits = 0x1ba
                    0x01bc                  OC5RS = 0x1bc
                    0x01bc                  _OC5RS = 0x1bc
                    0x01be                  OC5R = 0x1be
                    0x01be                  _OC5R = 0x1be
                    0x01c0                  OC5TMR = 0x1c0
                    0x01c0                  _OC5TMR = 0x1c0
                    0x01c2                  OC6CON1 = 0x1c2
                    0x01c2                  _OC6CON1 = 0x1c2
                    0x01c2                  _OC6CON1bits = 0x1c2
                    0x01c4                  OC6CON2 = 0x1c4
                    0x01c4                  _OC6CON2 = 0x1c4
                    0x01c4                  _OC6CON2bits = 0x1c4
                    0x01c6                  OC6RS = 0x1c6
                    0x01c6                  _OC6RS = 0x1c6
                    0x01c8                  OC6R = 0x1c8
                    0x01c8                  _OC6R = 0x1c8
                    0x01ca                  OC6TMR = 0x1ca
                    0x01ca                  _OC6TMR = 0x1ca
                    0x01cc                  OC7CON1 = 0x1cc
                    0x01cc                  _OC7CON1 = 0x1cc
                    0x01cc                  _OC7CON1bits = 0x1cc
                    0x01ce                  OC7CON2 = 0x1ce
                    0x01ce                  _OC7CON2 = 0x1ce
                    0x01ce                  _OC7CON2bits = 0x1ce
                    0x01d0                  OC7RS = 0x1d0
                    0x01d0                  _OC7RS = 0x1d0
                    0x01d2                  OC7R = 0x1d2
                    0x01d2                  _OC7R = 0x1d2
                    0x01d4                  OC7TMR = 0x1d4
                    0x01d4                  _OC7TMR = 0x1d4
                    0x01d6                  OC8CON1 = 0x1d6
                    0x01d6                  _OC8CON1 = 0x1d6
                    0x01d6                  _OC8CON1bits = 0x1d6
                    0x01d8                  OC8CON2 = 0x1d8
                    0x01d8                  _OC8CON2 = 0x1d8
                    0x01d8                  _OC8CON2bits = 0x1d8
                    0x01da                  OC8RS = 0x1da
                    0x01da                  _OC8RS = 0x1da
                    0x01dc                  OC8R = 0x1dc
                    0x01dc                  _OC8R = 0x1dc
                    0x01de                  OC8TMR = 0x1de
                    0x01de                  _OC8TMR = 0x1de
                    0x01e0                  OC9CON1 = 0x1e0
                    0x01e0                  _OC9CON1 = 0x1e0
                    0x01e0                  _OC9CON1bits = 0x1e0
                    0x01e2                  OC9CON2 = 0x1e2
                    0x01e2                  _OC9CON2 = 0x1e2
                    0x01e2                  _OC9CON2bits = 0x1e2
                    0x01e4                  OC9RS = 0x1e4
                    0x01e4                  _OC9RS = 0x1e4
                    0x01e6                  OC9R = 0x1e6
                    0x01e6                  _OC9R = 0x1e6
                    0x01e8                  OC9TMR = 0x1e8
                    0x01e8                  _OC9TMR = 0x1e8
                    0x0200                  I2C1RCV = 0x200
                    0x0200                  _I2C1RCV = 0x200
                    0x0202                  I2C1TRN = 0x202
                    0x0202                  _I2C1TRN = 0x202
                    0x0204                  I2C1BRG = 0x204
                    0x0204                  _I2C1BRG = 0x204
                    0x0206                  I2C1CON = 0x206
                    0x0206                  _I2C1CON = 0x206
                    0x0206                  _I2C1CONbits = 0x206
                    0x0208                  I2C1STAT = 0x208
                    0x0208                  _I2C1STAT = 0x208
                    0x0208                  _I2C1STATbits = 0x208
                    0x020a                  I2C1ADD = 0x20a
                    0x020a                  _I2C1ADD = 0x20a
                    0x020c                  I2C1MSK = 0x20c
                    0x020c                  _I2C1MSK = 0x20c
                    0x0210                  I2C2RCV = 0x210
                    0x0210                  _I2C2RCV = 0x210
                    0x0212                  I2C2TRN = 0x212
                    0x0212                  _I2C2TRN = 0x212
                    0x0214                  I2C2BRG = 0x214
                    0x0214                  _I2C2BRG = 0x214
                    0x0216                  I2C2CON = 0x216
                    0x0216                  _I2C2CON = 0x216
                    0x0216                  _I2C2CONbits = 0x216
                    0x0218                  I2C2STAT = 0x218
                    0x0218                  _I2C2STAT = 0x218
                    0x0218                  _I2C2STATbits = 0x218
                    0x021a                  I2C2ADD = 0x21a
                    0x021a                  _I2C2ADD = 0x21a
                    0x021c                  I2C2MSK = 0x21c
                    0x021c                  _I2C2MSK = 0x21c
                    0x0220                  U1MODE = 0x220
                    0x0220                  _U1MODE = 0x220
                    0x0220                  _U1MODEbits = 0x220
                    0x0222                  U1STA = 0x222
                    0x0222                  _U1STA = 0x222
                    0x0222                  _U1STAbits = 0x222
                    0x0224                  U1TXREG = 0x224
                    0x0224                  _U1TXREG = 0x224
                    0x0224                  _U1TXREGbits = 0x224
                    0x0226                  U1RXREG = 0x226
                    0x0226                  _U1RXREG = 0x226
                    0x0226                  _U1RXREGbits = 0x226
                    0x0228                  U1BRG = 0x228
                    0x0228                  _U1BRG = 0x228
                    0x0230                  U2MODE = 0x230
                    0x0230                  _U2MODE = 0x230
                    0x0230                  _U2MODEbits = 0x230
                    0x0232                  U2STA = 0x232
                    0x0232                  _U2STA = 0x232
                    0x0232                  _U2STAbits = 0x232
                    0x0234                  U2TXREG = 0x234
                    0x0234                  _U2TXREG = 0x234
                    0x0234                  _U2TXREGbits = 0x234
                    0x0236                  U2RXREG = 0x236
                    0x0236                  _U2RXREG = 0x236
                    0x0236                  _U2RXREGbits = 0x236
                    0x0238                  U2BRG = 0x238
                    0x0238                  _U2BRG = 0x238
                    0x0240                  SPI1STAT = 0x240
                    0x0240                  _SPI1STAT = 0x240
                    0x0240                  _SPI1STATbits = 0x240
                    0x0242                  SPI1CON1 = 0x242
                    0x0242                  _SPI1CON1 = 0x242
                    0x0242                  _SPI1CON1bits = 0x242
                    0x0244                  SPI1CON2 = 0x244
                    0x0244                  _SPI1CON2 = 0x244
                    0x0244                  _SPI1CON2bits = 0x244
                    0x0248                  SPI1BUF = 0x248
                    0x0248                  _SPI1BUF = 0x248
                    0x0250                  U3MODE = 0x250
                    0x0250                  _U3MODE = 0x250
                    0x0250                  _U3MODEbits = 0x250
                    0x0252                  U3STA = 0x252
                    0x0252                  _U3STA = 0x252
                    0x0252                  _U3STAbits = 0x252
                    0x0254                  U3TXREG = 0x254
                    0x0254                  _U3TXREG = 0x254
                    0x0254                  _U3TXREGbits = 0x254
                    0x0256                  U3RXREG = 0x256
                    0x0256                  _U3RXREG = 0x256
                    0x0256                  _U3RXREGbits = 0x256
                    0x0258                  U3BRG = 0x258
                    0x0258                  _U3BRG = 0x258
                    0x0260                  SPI2STAT = 0x260
                    0x0260                  _SPI2STAT = 0x260
                    0x0260                  _SPI2STATbits = 0x260
                    0x0262                  SPI2CON1 = 0x262
                    0x0262                  _SPI2CON1 = 0x262
                    0x0262                  _SPI2CON1bits = 0x262
                    0x0264                  SPI2CON2 = 0x264
                    0x0264                  _SPI2CON2 = 0x264
                    0x0264                  _SPI2CON2bits = 0x264
                    0x0268                  SPI2BUF = 0x268
                    0x0268                  _SPI2BUF = 0x268
                    0x0270                  I2C3RCV = 0x270
                    0x0270                  _I2C3RCV = 0x270
                    0x0272                  I2C3TRN = 0x272
                    0x0272                  _I2C3TRN = 0x272
                    0x0274                  I2C3BRG = 0x274
                    0x0274                  _I2C3BRG = 0x274
                    0x0276                  I2C3CON = 0x276
                    0x0276                  _I2C3CON = 0x276
                    0x0276                  _I2C3CONbits = 0x276
                    0x0278                  I2C3STAT = 0x278
                    0x0278                  _I2C3STAT = 0x278
                    0x0278                  _I2C3STATbits = 0x278
                    0x027a                  I2C3ADD = 0x27a
                    0x027a                  _I2C3ADD = 0x27a
                    0x027c                  I2C3MSK = 0x27c
                    0x027c                  _I2C3MSK = 0x27c
                    0x0280                  SPI3STAT = 0x280
                    0x0280                  _SPI3STAT = 0x280
                    0x0280                  _SPI3STATbits = 0x280
                    0x0282                  SPI3CON1 = 0x282
                    0x0282                  _SPI3CON1 = 0x282
                    0x0282                  _SPI3CON1bits = 0x282
                    0x0284                  SPI3CON2 = 0x284
                    0x0284                  _SPI3CON2 = 0x284
                    0x0284                  _SPI3CON2bits = 0x284
                    0x0288                  SPI3BUF = 0x288
                    0x0288                  _SPI3BUF = 0x288
                    0x02b0                  U4MODE = 0x2b0
                    0x02b0                  _U4MODE = 0x2b0
                    0x02b0                  _U4MODEbits = 0x2b0
                    0x02b2                  U4STA = 0x2b2
                    0x02b2                  _U4STA = 0x2b2
                    0x02b2                  _U4STAbits = 0x2b2
                    0x02b4                  U4TXREG = 0x2b4
                    0x02b4                  _U4TXREG = 0x2b4
                    0x02b4                  _U4TXREGbits = 0x2b4
                    0x02b6                  U4RXREG = 0x2b6
                    0x02b6                  _U4RXREG = 0x2b6
                    0x02b6                  _U4RXREGbits = 0x2b6
                    0x02b8                  U4BRG = 0x2b8
                    0x02b8                  _U4BRG = 0x2b8
                    0x02c0                  TRISA = 0x2c0
                    0x02c0                  _TRISA = 0x2c0
                    0x02c0                  _TRISAbits = 0x2c0
                    0x02c2                  PORTA = 0x2c2
                    0x02c2                  _PORTA = 0x2c2
                    0x02c2                  _PORTAbits = 0x2c2
                    0x02c4                  LATA = 0x2c4
                    0x02c4                  _LATA = 0x2c4
                    0x02c4                  _LATAbits = 0x2c4
                    0x02c6                  ODCA = 0x2c6
                    0x02c6                  _ODCA = 0x2c6
                    0x02c6                  _ODCAbits = 0x2c6
                    0x02c8                  TRISB = 0x2c8
                    0x02c8                  _TRISB = 0x2c8
                    0x02c8                  _TRISBbits = 0x2c8
                    0x02ca                  PORTB = 0x2ca
                    0x02ca                  _PORTB = 0x2ca
                    0x02ca                  _PORTBbits = 0x2ca
                    0x02cc                  LATB = 0x2cc
                    0x02cc                  _LATB = 0x2cc
                    0x02cc                  _LATBbits = 0x2cc
                    0x02ce                  ODCB = 0x2ce
                    0x02ce                  _ODCB = 0x2ce
                    0x02ce                  _ODCBbits = 0x2ce
                    0x02d0                  TRISC = 0x2d0
                    0x02d0                  _TRISC = 0x2d0
                    0x02d0                  _TRISCbits = 0x2d0
                    0x02d2                  PORTC = 0x2d2
                    0x02d2                  _PORTC = 0x2d2
                    0x02d2                  _PORTCbits = 0x2d2
                    0x02d4                  LATC = 0x2d4
                    0x02d4                  _LATC = 0x2d4
                    0x02d4                  _LATCbits = 0x2d4
                    0x02d6                  ODCC = 0x2d6
                    0x02d6                  _ODCC = 0x2d6
                    0x02d6                  _ODCCbits = 0x2d6
                    0x02d8                  TRISD = 0x2d8
                    0x02d8                  _TRISD = 0x2d8
                    0x02d8                  _TRISDbits = 0x2d8
                    0x02da                  PORTD = 0x2da
                    0x02da                  _PORTD = 0x2da
                    0x02da                  _PORTDbits = 0x2da
                    0x02dc                  LATD = 0x2dc
                    0x02dc                  _LATD = 0x2dc
                    0x02dc                  _LATDbits = 0x2dc
                    0x02de                  ODCD = 0x2de
                    0x02de                  _ODCD = 0x2de
                    0x02de                  _ODCDbits = 0x2de
                    0x02e0                  TRISE = 0x2e0
                    0x02e0                  _TRISE = 0x2e0
                    0x02e0                  _TRISEbits = 0x2e0
                    0x02e2                  PORTE = 0x2e2
                    0x02e2                  _PORTE = 0x2e2
                    0x02e2                  _PORTEbits = 0x2e2
                    0x02e4                  LATE = 0x2e4
                    0x02e4                  _LATE = 0x2e4
                    0x02e4                  _LATEbits = 0x2e4
                    0x02e6                  ODCE = 0x2e6
                    0x02e6                  _ODCE = 0x2e6
                    0x02e6                  _ODCEbits = 0x2e6
                    0x02e8                  TRISF = 0x2e8
                    0x02e8                  _TRISF = 0x2e8
                    0x02e8                  _TRISFbits = 0x2e8
                    0x02ea                  PORTF = 0x2ea
                    0x02ea                  _PORTF = 0x2ea
                    0x02ea                  _PORTFbits = 0x2ea
                    0x02ec                  LATF = 0x2ec
                    0x02ec                  _LATF = 0x2ec
                    0x02ec                  _LATFbits = 0x2ec
                    0x02ee                  ODCF = 0x2ee
                    0x02ee                  _ODCF = 0x2ee
                    0x02ee                  _ODCFbits = 0x2ee
                    0x02f0                  TRISG = 0x2f0
                    0x02f0                  _TRISG = 0x2f0
                    0x02f0                  _TRISGbits = 0x2f0
                    0x02f2                  PORTG = 0x2f2
                    0x02f2                  _PORTG = 0x2f2
                    0x02f2                  _PORTGbits = 0x2f2
                    0x02f4                  LATG = 0x2f4
                    0x02f4                  _LATG = 0x2f4
                    0x02f4                  _LATGbits = 0x2f4
                    0x02f6                  ODCG = 0x2f6
                    0x02f6                  _ODCG = 0x2f6
                    0x02f6                  _ODCGbits = 0x2f6
                    0x02fc                  PADCFG1 = 0x2fc
                    0x02fc                  _PADCFG1 = 0x2fc
                    0x02fc                  _PADCFG1bits = 0x2fc
                    0x0300                  ADC1BUF0 = 0x300
                    0x0300                  _ADC1BUF0 = 0x300
                    0x0302                  ADC1BUF1 = 0x302
                    0x0302                  _ADC1BUF1 = 0x302
                    0x0304                  ADC1BUF2 = 0x304
                    0x0304                  _ADC1BUF2 = 0x304
                    0x0306                  ADC1BUF3 = 0x306
                    0x0306                  _ADC1BUF3 = 0x306
                    0x0308                  ADC1BUF4 = 0x308
                    0x0308                  _ADC1BUF4 = 0x308
                    0x030a                  ADC1BUF5 = 0x30a
                    0x030a                  _ADC1BUF5 = 0x30a
                    0x030c                  ADC1BUF6 = 0x30c
                    0x030c                  _ADC1BUF6 = 0x30c
                    0x030e                  ADC1BUF7 = 0x30e
                    0x030e                  _ADC1BUF7 = 0x30e
                    0x0310                  ADC1BUF8 = 0x310
                    0x0310                  _ADC1BUF8 = 0x310
                    0x0312                  ADC1BUF9 = 0x312
                    0x0312                  _ADC1BUF9 = 0x312
                    0x0314                  ADC1BUFA = 0x314
                    0x0314                  _ADC1BUFA = 0x314
                    0x0316                  ADC1BUFB = 0x316
                    0x0316                  _ADC1BUFB = 0x316
                    0x0318                  ADC1BUFC = 0x318
                    0x0318                  _ADC1BUFC = 0x318
                    0x031a                  ADC1BUFD = 0x31a
                    0x031a                  _ADC1BUFD = 0x31a
                    0x031c                  ADC1BUFE = 0x31c
                    0x031c                  _ADC1BUFE = 0x31c
                    0x031e                  ADC1BUFF = 0x31e
                    0x031e                  _ADC1BUFF = 0x31e
                    0x0320                  AD1CON1 = 0x320
                    0x0320                  _AD1CON1 = 0x320
                    0x0320                  _AD1CON1bits = 0x320
                    0x0322                  AD1CON2 = 0x322
                    0x0322                  _AD1CON2 = 0x322
                    0x0322                  _AD1CON2bits = 0x322
                    0x0324                  AD1CON3 = 0x324
                    0x0324                  _AD1CON3 = 0x324
                    0x0324                  _AD1CON3bits = 0x324
                    0x0328                  AD1CHS = 0x328
                    0x0328                  _AD1CHS = 0x328
                    0x0328                  _AD1CHSbits = 0x328
                    0x0328                  AD1CHS0 = 0x328
                    0x0328                  _AD1CHS0 = 0x328
                    0x0328                  _AD1CHS0bits = 0x328
                    0x032e                  AD1CSSH = 0x32e
                    0x032e                  _AD1CSSH = 0x32e
                    0x032e                  _AD1CSSHbits = 0x32e
                    0x0330                  AD1CSSL = 0x330
                    0x0330                  _AD1CSSL = 0x330
                    0x0330                  _AD1CSSLbits = 0x330
                    0x033c                  CTMUCON = 0x33c
                    0x033c                  _CTMUCON = 0x33c
                    0x033c                  _CTMUCONbits = 0x33c
                    0x033e                  CTMUICON = 0x33e
                    0x033e                  _CTMUICON = 0x33e
                    0x033e                  _CTMUICONbits = 0x33e
                    0x0340                  ADC1BUF10 = 0x340
                    0x0340                  _ADC1BUF10 = 0x340
                    0x0342                  ADC1BUF11 = 0x342
                    0x0342                  _ADC1BUF11 = 0x342
                    0x0344                  ADC1BUF12 = 0x344
                    0x0344                  _ADC1BUF12 = 0x344
                    0x0346                  ADC1BUF13 = 0x346
                    0x0346                  _ADC1BUF13 = 0x346
                    0x0348                  ADC1BUF14 = 0x348
                    0x0348                  _ADC1BUF14 = 0x348
                    0x034a                  ADC1BUF15 = 0x34a
                    0x034a                  _ADC1BUF15 = 0x34a
                    0x034c                  ADC1BUF16 = 0x34c
                    0x034c                  _ADC1BUF16 = 0x34c
                    0x034e                  ADC1BUF17 = 0x34e
                    0x034e                  _ADC1BUF17 = 0x34e
                    0x0350                  ADC1BUF18 = 0x350
                    0x0350                  _ADC1BUF18 = 0x350
                    0x0352                  ADC1BUF19 = 0x352
                    0x0352                  _ADC1BUF19 = 0x352
                    0x0354                  ADC1BUF1A = 0x354
                    0x0354                  _ADC1BUF1A = 0x354
                    0x0356                  ADC1BUF1B = 0x356
                    0x0356                  _ADC1BUF1B = 0x356
                    0x0358                  ADC1BUF1C = 0x358
                    0x0358                  _ADC1BUF1C = 0x358
                    0x035a                  ADC1BUF1D = 0x35a
                    0x035a                  _ADC1BUF1D = 0x35a
                    0x035c                  ADC1BUF1E = 0x35c
                    0x035c                  _ADC1BUF1E = 0x35c
                    0x035e                  ADC1BUF1F = 0x35e
                    0x035e                  _ADC1BUF1F = 0x35e
                    0x0480                  U1OTGIR = 0x480
                    0x0480                  _U1OTGIR = 0x480
                    0x0480                  _U1OTGIRbits = 0x480
                    0x0482                  U1OTGIE = 0x482
                    0x0482                  _U1OTGIE = 0x482
                    0x0482                  _U1OTGIEbits = 0x482
                    0x0484                  U1OTGSTAT = 0x484
                    0x0484                  _U1OTGSTAT = 0x484
                    0x0484                  _U1OTGSTATbits = 0x484
                    0x0486                  U1OTGCON = 0x486
                    0x0486                  _U1OTGCON = 0x486
                    0x0486                  _U1OTGCONbits = 0x486
                    0x0488                  U1PWRC = 0x488
                    0x0488                  _U1PWRC = 0x488
                    0x0488                  _U1PWRCbits = 0x488
                    0x048a                  U1IR = 0x48a
                    0x048a                  _U1IR = 0x48a
                    0x048a                  _U1IRbits = 0x48a
                    0x048c                  U1IE = 0x48c
                    0x048c                  _U1IE = 0x48c
                    0x048c                  _U1IEbits = 0x48c
                    0x048e                  U1EIR = 0x48e
                    0x048e                  _U1EIR = 0x48e
                    0x048e                  _U1EIRbits = 0x48e
                    0x0490                  U1EIE = 0x490
                    0x0490                  _U1EIE = 0x490
                    0x0490                  _U1EIEbits = 0x490
                    0x0492                  U1STAT = 0x492
                    0x0492                  _U1STAT = 0x492
                    0x0492                  _U1STATbits = 0x492
                    0x0494                  U1CON = 0x494
                    0x0494                  _U1CON = 0x494
                    0x0494                  _U1CONbits = 0x494
                    0x0496                  U1ADDR = 0x496
                    0x0496                  _U1ADDR = 0x496
                    0x0496                  _U1ADDRbits = 0x496
                    0x0498                  U1BDTP1 = 0x498
                    0x0498                  _U1BDTP1 = 0x498
                    0x0498                  _U1BDTP1bits = 0x498
                    0x049a                  U1FRML = 0x49a
                    0x049a                  _U1FRML = 0x49a
                    0x049a                  _U1FRMLbits = 0x49a
                    0x049c                  U1FRMH = 0x49c
                    0x049c                  _U1FRMH = 0x49c
                    0x049c                  _U1FRMHbits = 0x49c
                    0x049e                  U1TOK = 0x49e
                    0x049e                  _U1TOK = 0x49e
                    0x049e                  _U1TOKbits = 0x49e
                    0x04a0                  U1SOF = 0x4a0
                    0x04a0                  _U1SOF = 0x4a0
                    0x04a0                  _U1SOFbits = 0x4a0
                    0x04a6                  U1CNFG1 = 0x4a6
                    0x04a6                  _U1CNFG1 = 0x4a6
                    0x04a6                  _U1CNFG1bits = 0x4a6
                    0x04a8                  U1CNFG2 = 0x4a8
                    0x04a8                  _U1CNFG2 = 0x4a8
                    0x04a8                  _U1CNFG2bits = 0x4a8
                    0x04aa                  U1EP0 = 0x4aa
                    0x04aa                  _U1EP0 = 0x4aa
                    0x04aa                  _U1EP0bits = 0x4aa
                    0x04ac                  U1EP1 = 0x4ac
                    0x04ac                  _U1EP1 = 0x4ac
                    0x04ac                  _U1EP1bits = 0x4ac
                    0x04ae                  U1EP2 = 0x4ae
                    0x04ae                  _U1EP2 = 0x4ae
                    0x04ae                  _U1EP2bits = 0x4ae
                    0x04b0                  U1EP3 = 0x4b0
                    0x04b0                  _U1EP3 = 0x4b0
                    0x04b0                  _U1EP3bits = 0x4b0
                    0x04b2                  U1EP4 = 0x4b2
                    0x04b2                  _U1EP4 = 0x4b2
                    0x04b2                  _U1EP4bits = 0x4b2
                    0x04b4                  U1EP5 = 0x4b4
                    0x04b4                  _U1EP5 = 0x4b4
                    0x04b4                  _U1EP5bits = 0x4b4
                    0x04b6                  U1EP6 = 0x4b6
                    0x04b6                  _U1EP6 = 0x4b6
                    0x04b6                  _U1EP6bits = 0x4b6
                    0x04b8                  U1EP7 = 0x4b8
                    0x04b8                  _U1EP7 = 0x4b8
                    0x04b8                  _U1EP7bits = 0x4b8
                    0x04ba                  U1EP8 = 0x4ba
                    0x04ba                  _U1EP8 = 0x4ba
                    0x04ba                  _U1EP8bits = 0x4ba
                    0x04bc                  U1EP9 = 0x4bc
                    0x04bc                  _U1EP9 = 0x4bc
                    0x04bc                  _U1EP9bits = 0x4bc
                    0x04be                  U1EP10 = 0x4be
                    0x04be                  _U1EP10 = 0x4be
                    0x04be                  _U1EP10bits = 0x4be
                    0x04c0                  U1EP11 = 0x4c0
                    0x04c0                  _U1EP11 = 0x4c0
                    0x04c0                  _U1EP11bits = 0x4c0
                    0x04c2                  U1EP12 = 0x4c2
                    0x04c2                  _U1EP12 = 0x4c2
                    0x04c2                  _U1EP12bits = 0x4c2
                    0x04c4                  U1EP13 = 0x4c4
                    0x04c4                  _U1EP13 = 0x4c4
                    0x04c4                  _U1EP13bits = 0x4c4
                    0x04c6                  U1EP14 = 0x4c6
                    0x04c6                  _U1EP14 = 0x4c6
                    0x04c6                  _U1EP14bits = 0x4c6
                    0x04c8                  U1EP15 = 0x4c8
                    0x04c8                  _U1EP15 = 0x4c8
                    0x04c8                  _U1EP15bits = 0x4c8
                    0x04cc                  U1PWMRRS = 0x4cc
                    0x04cc                  _U1PWMRRS = 0x4cc
                    0x04cc                  _U1PWMRRSbits = 0x4cc
                    0x04ce                  U1PWMCON = 0x4ce
                    0x04ce                  _U1PWMCON = 0x4ce
                    0x04ce                  _U1PWMCONbits = 0x4ce
                    0x04de                  ANCFG = 0x4de
                    0x04de                  _ANCFG = 0x4de
                    0x04de                  _ANCFGbits = 0x4de
                    0x04e0                  ANSA = 0x4e0
                    0x04e0                  _ANSA = 0x4e0
                    0x04e0                  _ANSAbits = 0x4e0
                    0x04e2                  ANSB = 0x4e2
                    0x04e2                  _ANSB = 0x4e2
                    0x04e2                  _ANSBbits = 0x4e2
                    0x04e4                  ANSC = 0x4e4
                    0x04e4                  _ANSC = 0x4e4
                    0x04e4                  _ANSCbits = 0x4e4
                    0x04e6                  ANSD = 0x4e6
                    0x04e6                  _ANSD = 0x4e6
                    0x04e6                  _ANSDbits = 0x4e6
                    0x04e8                  ANSE = 0x4e8
                    0x04e8                  _ANSE = 0x4e8
                    0x04e8                  _ANSEbits = 0x4e8
                    0x04ea                  ANSF = 0x4ea
                    0x04ea                  _ANSF = 0x4ea
                    0x04ea                  _ANSFbits = 0x4ea
                    0x04ec                  ANSG = 0x4ec
                    0x04ec                  _ANSG = 0x4ec
                    0x04ec                  _ANSGbits = 0x4ec
                    0x0600                  PMCON1 = 0x600
                    0x0600                  _PMCON1 = 0x600
                    0x0600                  _PMCON1bits = 0x600
                    0x0602                  PMCON2 = 0x602
                    0x0602                  _PMCON2 = 0x602
                    0x0602                  _PMCON2bits = 0x602
                    0x0604                  PMCON3 = 0x604
                    0x0604                  _PMCON3 = 0x604
                    0x0604                  _PMCON3bits = 0x604
                    0x0606                  PMCON4 = 0x606
                    0x0606                  _PMCON4 = 0x606
                    0x0606                  _PMCON4bits = 0x606
                    0x0608                  PMCS1CF = 0x608
                    0x0608                  _PMCS1CF = 0x608
                    0x0608                  _PMCS1CFbits = 0x608
                    0x060a                  PMCS1BS = 0x60a
                    0x060a                  _PMCS1BS = 0x60a
                    0x060a                  _PMCS1BSbits = 0x60a
                    0x060c                  PMCS1MD = 0x60c
                    0x060c                  _PMCS1MD = 0x60c
                    0x060c                  _PMCS1MDbits = 0x60c
                    0x060e                  PMCS2CF = 0x60e
                    0x060e                  _PMCS2CF = 0x60e
                    0x060e                  _PMCS2CFbits = 0x60e
                    0x0610                  PMCS2BS = 0x610
                    0x0610                  _PMCS2BS = 0x610
                    0x0610                  _PMCS2BSbits = 0x610
                    0x0612                  PMCS2MD = 0x612
                    0x0612                  _PMCS2MD = 0x612
                    0x0612                  _PMCS2MDbits = 0x612
                    0x0614                  PMDOUT1 = 0x614
                    0x0614                  _PMDOUT1 = 0x614
                    0x0616                  PMDOUT2 = 0x616
                    0x0616                  _PMDOUT2 = 0x616
                    0x0618                  PMDIN1 = 0x618
                    0x0618                  _PMDIN1 = 0x618
                    0x061a                  PMDIN2 = 0x61a
                    0x061a                  _PMDIN2 = 0x61a
                    0x061c                  PMSTAT = 0x61c
                    0x061c                  _PMSTAT = 0x61c
                    0x061c                  _PMSTATbits = 0x61c
                    0x0620                  ALRMVAL = 0x620
                    0x0620                  _ALRMVAL = 0x620
                    0x0622                  ALCFGRPT = 0x622
                    0x0622                  _ALCFGRPT = 0x622
                    0x0622                  _ALCFGRPTbits = 0x622
                    0x0624                  RTCVAL = 0x624
                    0x0624                  _RTCVAL = 0x624
                    0x0626                  RCFGCAL = 0x626
                    0x0626                  _RCFGCAL = 0x626
                    0x0626                  _RCFGCALbits = 0x626
                    0x0630                  CMSTAT = 0x630
                    0x0630                  _CMSTAT = 0x630
                    0x0630                  _CMSTATbits = 0x630
                    0x0632                  CVRCON = 0x632
                    0x0632                  _CVRCON = 0x632
                    0x0632                  _CVRCONbits = 0x632
                    0x0634                  CM1CON = 0x634
                    0x0634                  _CM1CON = 0x634
                    0x0634                  _CM1CONbits = 0x634
                    0x0636                  CM2CON = 0x636
                    0x0636                  _CM2CON = 0x636
                    0x0636                  _CM2CONbits = 0x636
                    0x0638                  CM3CON = 0x638
                    0x0638                  _CM3CON = 0x638
                    0x0638                  _CM3CONbits = 0x638
                    0x0640                  CRCCON1 = 0x640
                    0x0640                  _CRCCON1 = 0x640
                    0x0640                  _CRCCON1bits = 0x640
                    0x0642                  CRCCON2 = 0x642
                    0x0642                  _CRCCON2 = 0x642
                    0x0642                  _CRCCON2bits = 0x642
                    0x0644                  CRCXORL = 0x644
                    0x0644                  _CRCXORL = 0x644
                    0x0644                  _CRCXORLbits = 0x644
                    0x0646                  CRCXORH = 0x646
                    0x0646                  _CRCXORH = 0x646
                    0x0646                  _CRCXORHbits = 0x646
                    0x0648                  CRCDAT = 0x648
                    0x0648                  _CRCDAT = 0x648
                    0x0648                  CRCDAT32 = 0x648
                    0x0648                  _CRCDAT32 = 0x648
                    0x0648                  CRCDAT8 = 0x648
                    0x0648                  _CRCDAT8 = 0x648
                    0x0648                  CRCDATL = 0x648
                    0x0648                  _CRCDATL = 0x648
                    0x064a                  CRCDATH = 0x64a
                    0x064a                  _CRCDATH = 0x64a
                    0x064c                  CRCWDATL = 0x64c
                    0x064c                  _CRCWDATL = 0x64c
                    0x064e                  CRCWDATH = 0x64e
                    0x064e                  _CRCWDATH = 0x64e
                    0x0680                  RPINR0 = 0x680
                    0x0680                  _RPINR0 = 0x680
                    0x0680                  _RPINR0bits = 0x680
                    0x0682                  RPINR1 = 0x682
                    0x0682                  _RPINR1 = 0x682
                    0x0682                  _RPINR1bits = 0x682
                    0x0684                  RPINR2 = 0x684
                    0x0684                  _RPINR2 = 0x684
                    0x0684                  _RPINR2bits = 0x684
                    0x0686                  RPINR3 = 0x686
                    0x0686                  _RPINR3 = 0x686
                    0x0686                  _RPINR3bits = 0x686
                    0x0688                  RPINR4 = 0x688
                    0x0688                  _RPINR4 = 0x688
                    0x0688                  _RPINR4bits = 0x688
                    0x068e                  RPINR7 = 0x68e
                    0x068e                  _RPINR7 = 0x68e
                    0x068e                  _RPINR7bits = 0x68e
                    0x0690                  RPINR8 = 0x690
                    0x0690                  _RPINR8 = 0x690
                    0x0690                  _RPINR8bits = 0x690
                    0x0692                  RPINR9 = 0x692
                    0x0692                  _RPINR9 = 0x692
                    0x0692                  _RPINR9bits = 0x692
                    0x0694                  RPINR10 = 0x694
                    0x0694                  _RPINR10 = 0x694
                    0x0694                  _RPINR10bits = 0x694
                    0x0696                  RPINR11 = 0x696
                    0x0696                  _RPINR11 = 0x696
                    0x0696                  _RPINR11bits = 0x696
                    0x069e                  RPINR15 = 0x69e
                    0x069e                  _RPINR15 = 0x69e
                    0x069e                  _RPINR15bits = 0x69e
                    0x06a2                  RPINR17 = 0x6a2
                    0x06a2                  _RPINR17 = 0x6a2
                    0x06a2                  _RPINR17bits = 0x6a2
                    0x06a4                  RPINR18 = 0x6a4
                    0x06a4                  _RPINR18 = 0x6a4
                    0x06a4                  _RPINR18bits = 0x6a4
                    0x06a6                  RPINR19 = 0x6a6
                    0x06a6                  _RPINR19 = 0x6a6
                    0x06a6                  _RPINR19bits = 0x6a6
                    0x06a8                  RPINR20 = 0x6a8
                    0x06a8                  _RPINR20 = 0x6a8
                    0x06a8                  _RPINR20bits = 0x6a8
                    0x06aa                  RPINR21 = 0x6aa
                    0x06aa                  _RPINR21 = 0x6aa
                    0x06aa                  _RPINR21bits = 0x6aa
                    0x06ac                  RPINR22 = 0x6ac
                    0x06ac                  _RPINR22 = 0x6ac
                    0x06ac                  _RPINR22bits = 0x6ac
                    0x06ae                  RPINR23 = 0x6ae
                    0x06ae                  _RPINR23 = 0x6ae
                    0x06ae                  _RPINR23bits = 0x6ae
                    0x06b6                  RPINR27 = 0x6b6
                    0x06b6                  _RPINR27 = 0x6b6
                    0x06b6                  _RPINR27bits = 0x6b6
                    0x06b8                  RPINR28 = 0x6b8
                    0x06b8                  _RPINR28 = 0x6b8
                    0x06b8                  _RPINR28bits = 0x6b8
                    0x06ba                  RPINR29 = 0x6ba
                    0x06ba                  _RPINR29 = 0x6ba
                    0x06ba                  _RPINR29bits = 0x6ba
                    0x06c0                  RPOR0 = 0x6c0
                    0x06c0                  _RPOR0 = 0x6c0
                    0x06c0                  _RPOR0bits = 0x6c0
                    0x06c2                  RPOR1 = 0x6c2
                    0x06c2                  _RPOR1 = 0x6c2
                    0x06c2                  _RPOR1bits = 0x6c2
                    0x06c4                  RPOR2 = 0x6c4
                    0x06c4                  _RPOR2 = 0x6c4
                    0x06c4                  _RPOR2bits = 0x6c4
                    0x06c6                  RPOR3 = 0x6c6
                    0x06c6                  _RPOR3 = 0x6c6
                    0x06c6                  _RPOR3bits = 0x6c6
                    0x06c8                  RPOR4 = 0x6c8
                    0x06c8                  _RPOR4 = 0x6c8
                    0x06c8                  _RPOR4bits = 0x6c8
                    0x06ca                  RPOR5 = 0x6ca
                    0x06ca                  _RPOR5 = 0x6ca
                    0x06ca                  _RPOR5bits = 0x6ca
                    0x06cc                  RPOR6 = 0x6cc
                    0x06cc                  _RPOR6 = 0x6cc
                    0x06cc                  _RPOR6bits = 0x6cc
                    0x06ce                  RPOR7 = 0x6ce
                    0x06ce                  _RPOR7 = 0x6ce
                    0x06ce                  _RPOR7bits = 0x6ce
                    0x06d0                  RPOR8 = 0x6d0
                    0x06d0                  _RPOR8 = 0x6d0
                    0x06d0                  _RPOR8bits = 0x6d0
                    0x06d2                  RPOR9 = 0x6d2
                    0x06d2                  _RPOR9 = 0x6d2
                    0x06d2                  _RPOR9bits = 0x6d2
                    0x06d4                  RPOR10 = 0x6d4
                    0x06d4                  _RPOR10 = 0x6d4
                    0x06d4                  _RPOR10bits = 0x6d4
                    0x06d6                  RPOR11 = 0x6d6
                    0x06d6                  _RPOR11 = 0x6d6
                    0x06d6                  _RPOR11bits = 0x6d6
                    0x06d8                  RPOR12 = 0x6d8
                    0x06d8                  _RPOR12 = 0x6d8
                    0x06d8                  _RPOR12bits = 0x6d8
                    0x06da                  RPOR13 = 0x6da
                    0x06da                  _RPOR13 = 0x6da
                    0x06da                  _RPOR13bits = 0x6da
                    0x06dc                  RPOR14 = 0x6dc
                    0x06dc                  _RPOR14 = 0x6dc
                    0x06dc                  _RPOR14bits = 0x6dc
                    0x06de                  RPOR15 = 0x6de
                    0x06de                  _RPOR15 = 0x6de
                    0x06de                  _RPOR15bits = 0x6de
                    0x0700                  G1CMDL = 0x700
                    0x0700                  _G1CMDL = 0x700
                    0x0700                  _G1CMDLbits = 0x700
                    0x0702                  G1CMDH = 0x702
                    0x0702                  _G1CMDH = 0x702
                    0x0702                  _G1CMDHbits = 0x702
                    0x0704                  G1CON1 = 0x704
                    0x0704                  _G1CON1 = 0x704
                    0x0704                  _G1CON1bits = 0x704
                    0x0706                  G1STAT = 0x706
                    0x0706                  _G1STAT = 0x706
                    0x0706                  _G1STATbits = 0x706
                    0x0708                  G1IE = 0x708
                    0x0708                  _G1IE = 0x708
                    0x0708                  _G1IEbits = 0x708
                    0x070a                  G1IR = 0x70a
                    0x070a                  _G1IR = 0x70a
                    0x070a                  _G1IRbits = 0x70a
                    0x070c                  G1W1ADRL = 0x70c
                    0x070c                  _G1W1ADRL = 0x70c
                    0x070c                  _G1W1ADRLbits = 0x70c
                    0x070e                  G1W1ADRH = 0x70e
                    0x070e                  _G1W1ADRH = 0x70e
                    0x070e                  _G1W1ADRHbits = 0x70e
                    0x0710                  G1W2ADRL = 0x710
                    0x0710                  _G1W2ADRL = 0x710
                    0x0710                  _G1W2ADRLbits = 0x710
                    0x0712                  G1W2ADRH = 0x712
                    0x0712                  _G1W2ADRH = 0x712
                    0x0712                  _G1W2ADRHbits = 0x712
                    0x0714                  G1PUW = 0x714
                    0x0714                  _G1PUW = 0x714
                    0x0714                  _G1PUWbits = 0x714
                    0x0716                  G1PUH = 0x716
                    0x0716                  _G1PUH = 0x716
                    0x0716                  _G1PUHbits = 0x716
                    0x0718                  G1DPADRL = 0x718
                    0x0718                  _G1DPADRL = 0x718
                    0x0718                  _G1DPADRLbits = 0x718
                    0x071a                  G1DPADRH = 0x71a
                    0x071a                  _G1DPADRH = 0x71a
                    0x071a                  _G1DPADRHbits = 0x71a
                    0x071c                  G1DPW = 0x71c
                    0x071c                  _G1DPW = 0x71c
                    0x071c                  _G1DPWbits = 0x71c
                    0x071e                  G1DPH = 0x71e
                    0x071e                  _G1DPH = 0x71e
                    0x071e                  _G1DPHbits = 0x71e
                    0x0720                  G1DPWT = 0x720
                    0x0720                  _G1DPWT = 0x720
                    0x0720                  _G1DPWTbits = 0x720
                    0x0722                  G1DPHT = 0x722
                    0x0722                  _G1DPHT = 0x722
                    0x0722                  _G1DPHTbits = 0x722
                    0x0724                  G1CON2 = 0x724
                    0x0724                  _G1CON2 = 0x724
                    0x0724                  _G1CON2bits = 0x724
                    0x0726                  G1CON3 = 0x726
                    0x0726                  _G1CON3 = 0x726
                    0x0726                  _G1CON3bits = 0x726
                    0x0728                  G1ACTDA = 0x728
                    0x0728                  _G1ACTDA = 0x728
                    0x0728                  _G1ACTDAbits = 0x728
                    0x072a                  G1HSYNC = 0x72a
                    0x072a                  _G1HSYNC = 0x72a
                    0x072a                  _G1HSYNCbits = 0x72a
                    0x072c                  G1VSYNC = 0x72c
                    0x072c                  _G1VSYNC = 0x72c
                    0x072c                  _G1VSYNCbits = 0x72c
                    0x072e                  G1DBLCON = 0x72e
                    0x072e                  _G1DBLCON = 0x72e
                    0x072e                  _G1DBLCONbits = 0x72e
                    0x0730                  G1CLUT = 0x730
                    0x0730                  _G1CLUT = 0x730
                    0x0730                  _G1CLUTbits = 0x730
                    0x0732                  G1CLUTWR = 0x732
                    0x0732                  _G1CLUTWR = 0x732
                    0x0732                  _G1CLUTWRbits = 0x732
                    0x0734                  G1CLUTRD = 0x734
                    0x0734                  _G1CLUTRD = 0x734
                    0x0734                  _G1CLUTRDbits = 0x734
                    0x0736                  G1MRGN = 0x736
                    0x0736                  _G1MRGN = 0x736
                    0x0736                  _G1MRGNbits = 0x736
                    0x0738                  G1CHRX = 0x738
                    0x0738                  _G1CHRX = 0x738
                    0x0738                  _G1CHRXbits = 0x738
                    0x073a                  G1CHRY = 0x73a
                    0x073a                  _G1CHRY = 0x73a
                    0x073a                  _G1CHRYbits = 0x73a
                    0x073c                  G1IPU = 0x73c
                    0x073c                  _G1IPU = 0x73c
                    0x073c                  _G1IPUbits = 0x73c
                    0x073e                  G1DBEN = 0x73e
                    0x073e                  _G1DBEN = 0x73e
                    0x073e                  _G1DBENbits = 0x73e
                    0x0740                  RCON = 0x740
                    0x0740                  _RCON = 0x740
                    0x0740                  _RCONbits = 0x740
                    0x0742                  OSCCON = 0x742
                    0x0742                  _OSCCON = 0x742
                    0x0742                  _OSCCONbits = 0x742
                    0x0742                  OSCCONL = 0x742
                    0x0742                  _OSCCONL = 0x742
                    0x0743                  OSCCONH = 0x743
                    0x0743                  _OSCCONH = 0x743
                    0x0744                  CLKDIV = 0x744
                    0x0744                  _CLKDIV = 0x744
                    0x0744                  _CLKDIVbits = 0x744
                    0x0746                  CLKDIV2 = 0x746
                    0x0746                  _CLKDIV2 = 0x746
                    0x0746                  _CLKDIV2bits = 0x746
                    0x0748                  OSCTUN = 0x748
                    0x0748                  _OSCTUN = 0x748
                    0x0748                  _OSCTUNbits = 0x748
                    0x074e                  REFOCON = 0x74e
                    0x074e                  _REFOCON = 0x74e
                    0x074e                  _REFOCONbits = 0x74e
                    0x0760                  NVMCON = 0x760
                    0x0760                  _NVMCON = 0x760
                    0x0760                  _NVMCONbits = 0x760
                    0x0766                  NVMKEY = 0x766
                    0x0766                  _NVMKEY = 0x766
                    0x0770                  PMD1 = 0x770
                    0x0770                  _PMD1 = 0x770
                    0x0770                  _PMD1bits = 0x770
                    0x0772                  PMD2 = 0x772
                    0x0772                  _PMD2 = 0x772
                    0x0772                  _PMD2bits = 0x772
                    0x0774                  PMD3 = 0x774
                    0x0774                  _PMD3 = 0x774
                    0x0774                  _PMD3bits = 0x774
                    0x0776                  PMD4 = 0x776
                    0x0776                  _PMD4 = 0x776
                    0x0776                  _PMD4bits = 0x776
                    0x0778                  PMD5 = 0x778
                    0x0778                  _PMD5 = 0x778
                    0x0778                  _PMD5bits = 0x778
                    0x077a                  PMD6 = 0x77a
                    0x077a                  _PMD6 = 0x77a
                    0x077a                  _PMD6bits = 0x77a
                    0x0144                  IC1 = 0x144
                    0x0144                  _IC1 = 0x144
                    0x014c                  IC2 = 0x14c
                    0x014c                  _IC2 = 0x14c
                    0x0154                  IC3 = 0x154
                    0x0154                  _IC3 = 0x154
                    0x015c                  IC4 = 0x15c
                    0x015c                  _IC4 = 0x15c
                    0x0164                  IC5 = 0x164
                    0x0164                  _IC5 = 0x164
                    0x016c                  IC6 = 0x16c
                    0x016c                  _IC6 = 0x16c
                    0x0174                  IC7 = 0x174
                    0x0174                  _IC7 = 0x174
                    0x017c                  IC8 = 0x17c
                    0x017c                  _IC8 = 0x17c
                    0x0194                  OC1 = 0x194
                    0x0194                  _OC1 = 0x194
                    0x019e                  OC2 = 0x19e
                    0x019e                  _OC2 = 0x19e
                    0x01a8                  OC3 = 0x1a8
                    0x01a8                  _OC3 = 0x1a8
                    0x01b2                  OC4 = 0x1b2
                    0x01b2                  _OC4 = 0x1b2
                    0x01bc                  OC5 = 0x1bc
                    0x01bc                  _OC5 = 0x1bc
                    0x01c6                  OC6 = 0x1c6
                    0x01c6                  _OC6 = 0x1c6
                    0x01d0                  OC7 = 0x1d0
                    0x01d0                  _OC7 = 0x1d0
                    0x01da                  OC8 = 0x1da
                    0x01da                  _OC8 = 0x1da
                    0x0240                  SPI1 = 0x240
                    0x0240                  _SPI1 = 0x240
                    0x0260                  SPI2 = 0x260
                    0x0260                  _SPI2 = 0x260
                    0x0220                  UART1 = 0x220
                    0x0220                  _UART1 = 0x220
                    0x0230                  UART2 = 0x230
                    0x0230                  _UART2 = 0x230
START GROUP
LOAD c:/program files (x86)/microchip/mplabc30/v3.30/bin/bin/../../lib\libpic30-elf.a
LOAD c:/program files (x86)/microchip/mplabc30/v3.30/bin/bin/../../lib\libm-elf.a
LOAD c:/program files (x86)/microchip/mplabc30/v3.30/bin/bin/../../lib\libc-elf.a
END GROUP
OUTPUT(dist/default/production/OMB_CLS_build13.X.production.elf elf32-pic30)
LOAD jump_table
LOAD default_isr
LOAD data_init

__c30_signature
                  0x000600        0x1b0
 __c30_signature
                  0x000600          0x6 build/default/production/_ext/1472/RH_Control.o
 __c30_signature
                  0x000606          0x6 build/default/production/_ext/1472/TempControl.o
 __c30_signature
                  0x00060c          0x6 build/default/production/_ext/1472/AC_Hz.o
 __c30_signature
                  0x000612          0x6 build/default/production/_ext/1472/AlarmContactRelay.o
 __c30_signature
                  0x000618          0x6 build/default/production/_ext/1472/CO2_Control.o
 __c30_signature
                  0x00061e          0x6 build/default/production/_ext/1472/EventRTC.o
 __c30_signature
                  0x000624          0x6 build/default/production/_ext/1472/EventScheduler.o
 __c30_signature
                  0x00062a          0x6 build/default/production/_ext/1472/EventTCPIP.o
 __c30_signature
                  0x000630          0x6 build/default/production/_ext/1472/FailSafeRelay.o
 __c30_signature
                  0x000636          0x6 build/default/production/_ext/1472/O2_Control.o
 __c30_signature
                  0x00063c          0x6 build/default/production/_ext/1472/OMB_Mode.o
 __c30_signature
                  0x000642          0x6 build/default/production/_ext/1472/RTC_S35390.o
 __c30_signature
                  0x000648          0x6 build/default/production/_ext/1472/OMB_Output.o
 __c30_signature
                  0x00064e          0x6 build/default/production/_ext/1472/EventBuzzer.o
 __c30_signature
                  0x000654          0x6 build/default/production/_ext/1472/OMBLTC2439_Inputs.o
 __c30_signature
                  0x00065a          0x6 build/default/production/_ext/1472/OMB_UTI_Comm.o
 __c30_signature
                  0x000660          0x6 build/default/production/_ext/1472/O2_RS485.o
 __c30_signature
                  0x000666          0x6 build/default/production/_ext/1472/OMB_DigitalInputs.o
 __c30_signature
                  0x00066c          0x6 build/default/production/_ext/1472/USB.o
 __c30_signature
                  0x000672          0x6 build/default/production/_ext/1472/Event_UV.o
 __c30_signature
                  0x000678          0x6 build/default/production/_ext/1472/EEPROM_24AA1025.o
 __c30_signature
                  0x00067e          0x6 build/default/production/_ext/1472/CO2_RS485.o
 __c30_signature
                  0x000684          0x6 build/default/production/_ext/1472/OMB_AnalogOutput.o
 __c30_signature
                  0x00068a          0x6 build/default/production/_ext/1472/p24FJ256DA210_UART2.o
 __c30_signature
                  0x000690          0x6 build/default/production/_ext/1472/p24FJ256DA210_UART1.o
 __c30_signature
                  0x000696          0x6 build/default/production/_ext/1472/p24FJ256DA210_Timer1.o
 __c30_signature
                  0x00069c          0x6 build/default/production/_ext/1472/p24FJ256DA210_I2C3.o
 __c30_signature
                  0x0006a2          0x6 build/default/production/_ext/1472/p24FJ256DA210_SPI1.o
 __c30_signature
                  0x0006a8          0x6 build/default/production/_ext/1472/LTC2439.o
 __c30_signature
                  0x0006ae          0x6 build/default/production/_ext/1472/p24FJ256DA210_I2C1.o
 __c30_signature
                  0x0006b4          0x6 build/default/production/_ext/1472/p24FJ256DA210_ICN.o
 __c30_signature
                  0x0006ba          0x6 build/default/production/_ext/1472/p24FJ256DA210_OCx.o
 __c30_signature
                  0x0006c0          0x6 build/default/production/_ext/1472/p24FJ256DA210_Timer3.o
 __c30_signature
                  0x0006c6          0x6 build/default/production/_ext/1472/Flash.o
 __c30_signature
                  0x0006cc          0x6 build/default/production/_ext/867694782/ENC28J60.o
 __c30_signature
                  0x0006d2          0x6 build/default/production/_ext/867694782/Delay.o
 __c30_signature
                  0x0006d8          0x6 build/default/production/_ext/867694782/StackTsk.o
 __c30_signature
                  0x0006de          0x6 build/default/production/_ext/867694782/Helpers.o
 __c30_signature
                  0x0006e4          0x6 build/default/production/_ext/867694782/Announce.o
 __c30_signature
                  0x0006ea          0x6 build/default/production/_ext/867694782/UDP.o
 __c30_signature
                  0x0006f0          0x6 build/default/production/_ext/867694782/ARP.o
 __c30_signature
                  0x0006f6          0x6 build/default/production/_ext/867694782/DHCP.o
 __c30_signature
                  0x0006fc          0x6 build/default/production/_ext/867694782/Tick.o
 __c30_signature
                  0x000702          0x6 build/default/production/_ext/867694782/IP.o
 __c30_signature
                  0x000708          0x6 build/default/production/_ext/867694782/ICMP.o
 __c30_signature
                  0x00070e          0x6 build/default/production/_ext/867694782/TCP.o
 __c30_signature
                  0x000714          0x6 build/default/production/_ext/1472/main.o
 __c30_signature
                  0x00071a          0x6 build/default/production/_ext/1472/General.o
 __c30_signature
                  0x000720          0x6 c:/program files (x86)/microchip/mplabc30/v3.30/bin/bin/../../lib\libpic30-elf.a(crt0_extended.o)
 __c30_signature
                  0x000726          0x6 c:/program files (x86)/microchip/mplabc30/v3.30/bin/bin/../../lib\libpic30-elf.a(data_init_extended.o)
 __c30_signature
                  0x00072c          0x6 c:/program files (x86)/microchip/mplabc30/v3.30/bin/bin/../../lib\libm-elf.a(addsf3.eo)
 __c30_signature
                  0x000732          0x6 c:/program files (x86)/microchip/mplabc30/v3.30/bin/bin/../../lib\libm-elf.a(divsf3.eo)
 __c30_signature
                  0x000738          0x6 c:/program files (x86)/microchip/mplabc30/v3.30/bin/bin/../../lib\libm-elf.a(divsi3.eo)
 __c30_signature
                  0x00073e          0x6 c:/program files (x86)/microchip/mplabc30/v3.30/bin/bin/../../lib\libm-elf.a(feqltle.eo)
 __c30_signature
                  0x000744          0x6 c:/program files (x86)/microchip/mplabc30/v3.30/bin/bin/../../lib\libm-elf.a(fgtge.eo)
 __c30_signature
                  0x00074a          0x6 c:/program files (x86)/microchip/mplabc30/v3.30/bin/bin/../../lib\libm-elf.a(fixsfsi.eo)
 __c30_signature
                  0x000750          0x6 c:/program files (x86)/microchip/mplabc30/v3.30/bin/bin/../../lib\libm-elf.a(fixunssfsi.eo)
 __c30_signature
                  0x000756          0x6 c:/program files (x86)/microchip/mplabc30/v3.30/bin/bin/../../lib\libm-elf.a(floatsisf.eo)
 __c30_signature
                  0x00075c          0x6 c:/program files (x86)/microchip/mplabc30/v3.30/bin/bin/../../lib\libm-elf.a(fpack.eo)
 __c30_signature
                  0x000762          0x6 c:/program files (x86)/microchip/mplabc30/v3.30/bin/bin/../../lib\libm-elf.a(funpack.eo)
 __c30_signature
                  0x000768          0x6 c:/program files (x86)/microchip/mplabc30/v3.30/bin/bin/../../lib\libm-elf.a(funpack2.eo)
 __c30_signature
                  0x00076e          0x6 c:/program files (x86)/microchip/mplabc30/v3.30/bin/bin/../../lib\libm-elf.a(futil.eo)
 __c30_signature
                  0x000774          0x6 c:/program files (x86)/microchip/mplabc30/v3.30/bin/bin/../../lib\libm-elf.a(modsi3.eo)
 __c30_signature
                  0x00077a          0x6 c:/program files (x86)/microchip/mplabc30/v3.30/bin/bin/../../lib\libm-elf.a(mulsf3.eo)
 __c30_signature
                  0x000780          0x6 c:/program files (x86)/microchip/mplabc30/v3.30/bin/bin/../../lib\libm-elf.a(udivsi3.eo)
 __c30_signature
                  0x000786          0x6 c:/program files (x86)/microchip/mplabc30/v3.30/bin/bin/../../lib\libm-elf.a(umodsi3.eo)
 __c30_signature
                  0x00078c          0x6 c:/program files (x86)/microchip/mplabc30/v3.30/bin/bin/../../lib\libm-elf.a(divmoddi3.eo)
 __c30_signature
                  0x000792          0x6 c:/program files (x86)/microchip/mplabc30/v3.30/bin/bin/../../lib\libm-elf.a(fcompare.eo)
 __c30_signature
                  0x000798          0x6 c:/program files (x86)/microchip/mplabc30/v3.30/bin/bin/../../lib\libc-elf.a(memcpy.XXeo)
 __c30_signature
                  0x00079e          0x6 c:/program files (x86)/microchip/mplabc30/v3.30/bin/bin/../../lib\libc-elf.a(memset.XXeo)
 __c30_signature
                  0x0007a4          0x6 c:/program files (x86)/microchip/mplabc30/v3.30/bin/bin/../../lib\libc-elf.a(strlen.XXeo)
 __c30_signature
                  0x0007aa          0x6 c:/program files (x86)/microchip/mplabc30/v3.30/bin/bin/../../lib\libc-elf.a(strncpy.XXeo)

.nbss               0x0800        0x19c
 .nbss              0x0800        0x19c build/default/production/_ext/867694782/TCP.o

.ndata              0x099c        0x18a
 .ndata             0x099c        0x18a build/default/production/_ext/1472/EventScheduler.o
                    0x099c                  _OMB_Software_Ver
                    0x099e                  _MainEvent
                    0x0ad4                  _IntDrivenEvent
                    0x0b16                  _Flag

.nbss               0x0b26        0x3aa
 .nbss              0x0b26         0xfe build/default/production/_ext/1472/p24FJ256DA210_SPI1.o
                    0x0b26                  _SPI1_RxBuffer
 .nbss              0x0c24         0xd8 build/default/production/_ext/1472/p24FJ256DA210_I2C1.o
                    0x0c24                  _I2C1_RxdataBuffer
                    0x0c34                  _I2C1_TxdataBuffer
 .nbss              0x0cfc         0xcc build/default/production/_ext/867694782/UDP.o
                    0x0d02                  _UDPSocketInfo
                    0x0dc2                  _activeUDPSocket
                    0x0dc4                  _UDPTxCount
                    0x0dc6                  _UDPRxCount
 .nbss              0x0dc8         0x90 build/default/production/_ext/1472/EventTCPIP.o
                    0x0dde                  _Local_pointer_page
                    0x0de4                  _Local_Pointer
                    0x0de6                  _Local_APPPointer
                    0x0de8                  _Local_APPpointer_page
                    0x0e1b                  _ModBus_DataRx
                    0x0e24                  _ModBus_DataTx
 .nbss              0x0e58         0x78 build/default/production/_ext/1472/OMBLTC2439_Inputs.o
                    0x0e58                  _CO2cv
                    0x0e5a                  _IRCO2cv
                    0x0e5c                  _O2cv
                    0x0e5e                  _RHcv
                    0x0e60                  _ADCpt100
                    0x0e62                  _ADCntc
                    0x0e64                  _Vtc
                    0x0e66                  _ADCtc
                    0x0e68                  _Vvsl
                    0x0e6a                  _ADCvsl
                    0x0e6c                  _Vbat
                    0x0e6e                  _Vopt1
                    0x0e70                  _ADCopt1
                    0x0e72                  _Vopt2
                    0x0e74                  _ADCopt2
                    0x0e76                  _Vopt3
                    0x0e78                  _Vxtr
                    0x0e7a                  _Vdac
                    0x0e7c                  _Rpt100
                    0x0e7e                  _Rntc
                    0x0e80                  _ActualTcv
                    0x0e84                  _ActualTcvNTC
                    0x0e88                  _Tcv_total
                    0x0e8c                  _Tamb_total
                    0x0e90                  _Tamb_avg
                    0x0e94                  _CO2cv_total
                    0x0e98                  _CO2cv_avg
                    0x0e9c                  _IRCO2cv_total
                    0x0ea0                  _IRCO2cv_avg
                    0x0ea4                  _ADCbat
                    0x0ea6                  _batt_total
                    0x0eaa                  _batt_avg
                    0x0eae                  _O2cv_total
                    0x0eb2                  _O2cv_avg
                    0x0eb6                  _RHcv_total
                    0x0eba                  _RHcv_avg
                    0x0ebe                  _ADCopt3
                    0x0ec0                  _Vopt3_total
                    0x0ec4                  _Vopt3_avg
                    0x0ec8                  _ADCxtr
                    0x0eca                  _ADCdac
                    0x0ecc                  _ADC2500vref
                    0x0ece                  _ADC0vref

.ndata              0x0ed0         0xa4
 .ndata             0x0ed0         0x54 build/default/production/_ext/1472/OMBLTC2439_Inputs.o
                    0x0ed0                  _Moving_Avg_Window
                    0x0ed2                  _Tcv
                    0x0ed4                  _n_Tcv
                    0x0ed6                  _Rntc_Rmin
                    0x0ed8                  _Rntc_Rnom
                    0x0eda                  _Rntc_ADCmin
                    0x0edc                  _Rntc_ADCnom
                    0x0ede                  _Tamb
                    0x0ee0                  _n_Tamb
                    0x0ee2                  _Vtc_ADCmin
                    0x0ee4                  _Vtc_ADCnom
                    0x0ee6                  _n_CO2cv
                    0x0ee8                  _Vvsl_ADCmin
                    0x0eea                  _Vvsl_ADCnom
                    0x0eec                  _n_IRCO2cv
                    0x0eee                  _Vbat_ADCmin
                    0x0ef0                  _Vbat_ADCnom
                    0x0ef2                  _n_batt
                    0x0ef4                  _Vopt1_ADCmin
                    0x0ef6                  _Vopt1_ADCnom
                    0x0ef8                  _n_O2cv
                    0x0efa                  _Vopt2_ADCmin
                    0x0efc                  _Vopt2_ADCnom
                    0x0efe                  _n_RHcv
                    0x0f00                  _Vopt3_ADCmin
                    0x0f02                  _Vopt3_ADCnom
                    0x0f04                  _n_Vopt3
                    0x0f06                  _LOW_VOLT_CAL
                    0x0f08                  _HIGH_VOLT_CAL
                    0x0f0a                  _PT100_Tmin
                    0x0f0c                  _PT100_Tnom
                    0x0f0e                  _O2_Slope
                    0x0f10                  _O2_Offset
                    0x0f12                  _RH_Slope
                    0x0f14                  _RH_Offset
                    0x0f16                  _TC_0
                    0x0f18                  _TC_5
                    0x0f1a                  _TC_15
                    0x0f1c                  _IRCO2_Slope
                    0x0f1e                  _IRCO2_Offset
                    0x0f20                  _Analog_Slope
                    0x0f22                  _Analog_Offset
 .ndata             0x0f24         0x50 build/default/production/_ext/1472/EventRTC.o
                    0x0f24                  _RTC_Event

.nbss               0x0f74         0x36
 .nbss              0x0f74         0x36 build/default/production/_ext/1472/main.o
                    0x0f74                  _Dummy
                    0x0f76                  _AppConfig

.ndata              0x0faa         0x46
 .ndata             0x0faa         0x26 build/default/production/_ext/1472/TempControl.o
                    0x0faa                  _T_Itemp
                    0x0fae                  _Tr
                    0x0fb0                  _Tsp_old
                    0x0fb2                  _Ktn
                    0x0fb4                  _PWM_MainHeater
                    0x0fb6                  _CObias
                    0x0fba                  _SigmaT_SP
                    0x0fbe                  _SigmaT
                    0x0fc2                  _Delta_Sigma
                    0x0fc6                  _DutyCycle
                    0x0fca                  _HeatAction
                    0x0fcc                  _PrevError
 .ndata             0x0fd0         0x20 build/default/production/_ext/1472/OMB_AnalogOutput.o
                    0x0fd0                  _V1_DAC_CH
                    0x0fe0                  _V2_DAC_CH

.nbss               0x0ff0         0x5e
 .nbss              0x0ff0         0x20 build/default/production/_ext/1472/p24FJ256DA210_I2C3.o
                    0x0ff0                  _I2C3_dataBuffer
                    0x100e                  _I2C3_dataBuffer_Cnt
                    0x100f                  _I2C3_Flag
 .nbss              0x1010         0x20 build/default/production/_ext/867694782/DHCP.o
 .nbss              0x1030         0x1e build/default/production/_ext/1472/p24FJ256DA210_UART2.o
                    0x1030                  _U2RxBuffer

.ndata              0x104e         0x16
 .ndata             0x104e         0x16 build/default/production/_ext/1472/EventTCPIP.o
                    0x104e                  _VoyagerRegTable

.nbss               0x1064         0x5a
 .nbss              0x1064         0x16 build/default/production/_ext/867694782/ARP.o
 .nbss              0x107a         0x14 build/default/production/_ext/1472/p24FJ256DA210_UART1.o
                    0x107a                  _U1RxBuffer
 .nbss              0x108e         0x10 build/default/production/_ext/1472/RTC_S35390.o
                    0x108e                  _S35390_DataBuffer
                    0x1096                  _YearBuffer
                    0x1098                  _MonthBuffer
                    0x1099                  _DayBuffer
                    0x109a                  _HourBuffer
                    0x109b                  _MinuteBuffer
                    0x109c                  _SecondsBuffer
 .nbss              0x109e         0x10 build/default/production/_ext/1472/OMB_UTI_Comm.o
                    0x109e                  _RegAddres_Write
                    0x10a0                  _Reg_Write_Val
                    0x10a2                  _I2C1_DataFrame
 .nbss              0x10ae         0x10 build/default/production/_ext/867694782/StackTsk.o
                    0x10b4                  _remoteNode

.ndata              0x10be         0x18
 .ndata             0x10be          0xe build/default/production/_ext/1472/RH_Control.o
                    0x10be                  _prevRHsp
                    0x10c0                  _RH_PIDOut
                    0x10c4                  _RHAction
                    0x10c6                  _PrevRHError
                    0x10c8                  _CObias_RH
 .ndata             0x10cc          0xa build/default/production/_ext/1472/CO2_Control.o
                    0x10cc                  _prevCO2sp
                    0x10ce                  _CO2injectAction
                    0x10d0                  _PrevCO2Error
                    0x10d4                  _TargetCO2Error

.nbss               0x10d6         0x52
 .nbss              0x10d6          0xa build/default/production/_ext/1472/O2_RS485.o
                    0x10d6                  _O2RS485Register
 .nbss              0x10e0          0xa build/default/production/_ext/1472/OMB_AnalogOutput.o
                    0x10e0                  _Data_DAC
                    0x10e6                  _Data_DACtoTx
 .nbss              0x10ea          0xa build/default/production/_ext/867694782/Tick.o
 .nbss              0x10f4          0xa build/default/production/_ext/1472/General.o
                    0x10f4                  _charBuff
 .nbss              0x10fe          0x8 build/default/production/_ext/1472/CO2_RS485.o
                    0x10fe                  _CO2RS485_FinalBuffer
 .nbss              0x1106          0x8 build/default/production/_ext/867694782/ENC28J60.o
 .nbss              0x110e          0x6 build/default/production/_ext/1472/RH_Control.o
                    0x110e                  _RH_Itemp
                    0x1112                  _TargetRHError
 .nbss              0x1114          0x6 build/default/production/_ext/1472/TempControl.o
                    0x1114                  _prevTsp
                    0x1116                  _TargetError
 .nbss              0x111a          0x6 build/default/production/_ext/1472/LTC2439.o
                    0x111a                  _LTC2439RxBuff
                    0x111c                  _TotalData_LTC2439
 .nbss              0x1120          0x4 build/default/production/_ext/1472/CO2_Control.o
                    0x1120                  _CO2_Itemp
 .nbss              0x1124          0x4 build/default/production/_ext/1472/O2_Control.o
                    0x1124                  _O2_Itemp

.ndata              0x1128          0xc
 .ndata             0x1128          0x4 build/default/production/_ext/1472/O2_RS485.o
                    0x1128                  _O2RS485RxCnt
                    0x112a                  _O2SendCnt
 .ndata             0x112c          0x4 build/default/production/_ext/1472/CO2_RS485.o
                    0x112c                  _CO2RS485_RxReadCnt
                    0x112e                  _SendCount
 .ndata             0x1130          0x4 build/default/production/_ext/867694782/Helpers.o

.nbss               0x1134          0x8
 .nbss              0x1134          0x4 build/default/production/_ext/867694782/Announce.o
 .nbss              0x1138          0x4 build/default/production/_ext/867694782/IP.o

.ndata              0x113c          0x2
 .ndata             0x113c          0x2 build/default/production/_ext/1472/O2_Control.o
                    0x113c                  _prevO2sp

.nbss               0x113e          0x2
 .nbss              0x113e          0x2 build/default/production/_ext/1472/OMB_Mode.o
                    0x113e                  _CelSafeOptions

.ndata              0x1140         0x10
 .ndata             0x1140          0x2 build/default/production/_ext/1472/EventBuzzer.o
                    0x1140                  _BuzFlag
 .ndata             0x1142          0x2 build/default/production/_ext/1472/Event_UV.o
                    0x1142                  _UV_RunTimer
 .ndata             0x1144          0x2 build/default/production/_ext/1472/EEPROM_24AA1025.o
                    0x1144                  _ByteCheck
 .ndata             0x1146          0x2 build/default/production/_ext/1472/p24FJ256DA210_UART2.o
                    0x1146                  _U2RxBuf_Counter
 .ndata             0x1148          0x2 build/default/production/_ext/1472/p24FJ256DA210_UART1.o
                    0x1148                  _U1RxBuf_Counter
 .ndata             0x114a          0x2 build/default/production/_ext/1472/p24FJ256DA210_Timer1.o
                    0x114a                  _Counter1
 .ndata             0x114c          0x2 build/default/production/_ext/1472/p24FJ256DA210_SPI1.o
                    0x114c                  _SPI1_RxBuff_Cnt
 .ndata             0x114e          0x2 build/default/production/_ext/1472/p24FJ256DA210_I2C1.o
                    0x114e                  _I2C1_RxBuff_Cnt
                    0x114f                  _I2C1_TxBuff_Cnt

.nbss               0x1150          0x2
 .nbss              0x1150          0x2 build/default/production/_ext/1472/p24FJ256DA210_ICN.o
                    0x1150                  _RTC_Flag

.ndata              0x1152          0x2
 .ndata             0x1152          0x2 build/default/production/_ext/867694782/UDP.o

_03bbbd2059768334
                    0x1154          0x2
 _03bbbd2059768334
                    0x1154          0x2 build/default/production/_ext/867694782/UDP.o

.ndata              0x1156          0x4
 .ndata             0x1156          0x2 build/default/production/_ext/867694782/DHCP.o
                    0x1156                  _DHCPClientInitializedOnce
 .ndata             0x1158          0x2 build/default/production/_ext/867694782/TCP.o

_03d5154059768334
                    0x115a          0x2
 _03d5154059768334
                    0x115a          0x2 build/default/production/_ext/867694782/TCP.o

.ndata              0x115c          0x2
 .ndata             0x115c          0x2 build/default/production/_ext/1472/main.o
                    0x115c                  ___C30_UART

.bss                0x115e         0x54
 .bss               0x115e         0x1a build/default/production/_ext/1472/TempControl.o
                    0x115e                  _Tsp
                    0x1160                  _Tsp_ha
                    0x1162                  _Tsp_la
                    0x1164                  _Tsp_da
                    0x1166                  _T_pnum
                    0x1168                  _T_pdnum
                    0x116a                  _T_inum
                    0x116c                  _T_idnum
                    0x116e                  _Pan_Heater_Ratio
                    0x1170                  _Tcv_Offset
                    0x1172                  _Base_Htr_PR
                    0x1174                  _Door_Htr_PR
                    0x1176                  _Decon_Htr_PR
 .bss               0x1178         0x12 build/default/production/_ext/1472/RH_Control.o
                    0x1178                  _RHcv_Offset
                    0x117a                  _RHsp
                    0x117c                  _RH_ha
                    0x117e                  _RH_la
                    0x1180                  _RH_pnum
                    0x1182                  _RH_pdnum
                    0x1184                  _RH_inum
                    0x1186                  _RH_idnum
                    0x1188                  _NTCsp
 .bss               0x118a         0x10 build/default/production/_ext/1472/CO2_Control.o
                    0x118a                  _CO2cv_Offset
                    0x118c                  _CO2sp
                    0x118e                  _CO2_ha
                    0x1190                  _CO2_la
                    0x1192                  _CO2_pnum
                    0x1194                  _CO2_pdnum
                    0x1196                  _CO2_inum
                    0x1198                  _CO2_idnum
 .bss               0x119a         0x10 build/default/production/_ext/1472/O2_Control.o
                    0x119a                  _O2cv_Offset
                    0x119c                  _O2sp
                    0x119e                  _O2_ha
                    0x11a0                  _O2_la
                    0x11a2                  _O2_pnum
                    0x11a4                  _O2_pdnum
                    0x11a6                  _O2_inum
                    0x11a8                  _O2_idnum
 .bss               0x11aa          0x8 build/default/production/_ext/1472/OMBLTC2439_Inputs.o
                    0x11aa                  _Rpt100_Rmin
                    0x11ac                  _Rpt100_Rnom
                    0x11ae                  _Rpt100_ADCmin
                    0x11b0                  _Rpt100_ADCnom

.const              0x89aa        0x3e6 load address 0x0009aa  
 .const             0x89aa        0x1e6 build/default/production/_ext/1472/OMB_UTI_Comm.o
                    0x89aa                  _CLSRegister
 .const             0x8b90        0x162 build/default/production/_ext/1472/OMBLTC2439_Inputs.o
 .const             0x8cf2         0x36 build/default/production/_ext/867694782/TCP.o
                    0x8cf2                  _TCPSocketInitializer
 .const             0x8d28         0x28 build/default/production/_ext/1472/EventTCPIP.o
 .const             0x8d50         0x1c build/default/production/_ext/867694782/Announce.o
 .const             0x8d6c         0x10 build/default/production/_ext/1472/RTC_S35390.o
 .const             0x8d7c          0x8 build/default/production/_ext/1472/CO2_RS485.o
 .const             0x8d84          0x6 build/default/production/_ext/1472/TempControl.o
 .const             0x8d8a          0x6 build/default/production/_ext/1472/LTC2439.o

.text             0x000d90       0x8eea
 .text            0x000d90       0x2180 build/default/production/_ext/867694782/TCP.o
                  0x000e2c                  _TCPInit
                  0x000ef6                  _TCPOpen
                  0x001002                  _TCPWasReset
                  0x001032                  _TCPIsConnected
                  0x00105a                  _TCPDisconnect
                  0x0010f2                  _TCPClose
                  0x00110a                  _TCPGetRemoteInfo
                  0x001136                  _TCPFlush
                  0x001158                  _TCPIsPutReady
                  0x0011ae                  _TCPPut
                  0x001244                  _TCPPutArray
                  0x00131c                  _TCPPutString
                  0x001338                  _TCPGetTxFIFOFull
                  0x001366                  _TCPDiscard
                  0x001384                  _TCPIsGetReady
                  0x0013c2                  _TCPGet
                  0x00142a                  _TCPGetArray
                  0x0014e4                  _TCPGetRxFIFOFree
                  0x001510                  _TCPPeekArray
                  0x0015bc                  _TCPPeek
                  0x0015d4                  _TCPFindArrayEx
                  0x00185e                  _TCPFindEx
                  0x00187c                  _TCPTick
                  0x001c5e                  _TCPProcess
                  0x002d06                  _TCPAdjustFIFOSize
 .text            0x002f10        0xcb4 build/default/production/_ext/867694782/ENC28J60.o
                  0x002f10                  _MACInit
                  0x003030                  _MACIsLinked
                  0x003044                  _MACIsTxReady
                  0x00305c                  _MACDiscardRx
                  0x003090                  _MACGetFreeRxSize
                  0x003118                  _MACGetHeader
                  0x0031f8                  _MACPutHeader
                  0x00324c                  _MACFlush
                  0x003368                  _MACSetReadPtrInRx
                  0x003396                  _MACSetWritePtr
                  0x0033c4                  _MACSetReadPtr
                  0x0033f2                  _MACCalcRxChecksum
                  0x00344a                  _CalcIPBufferChecksum
                  0x0034fe                  _MACMemCopyAsync
                  0x0036b0                  _MACIsMemCopyDone
                  0x0036c8                  _MACGet
                  0x0036fa                  _MACGetArray
                  0x0037d4                  _MACPut
                  0x00380c                  _MACPutArray
                  0x0039c4                  _ReadPHYReg
                  0x003af6                  _WritePHYReg
                  0x003b46                  _MACPowerDown
                  0x003b74                  _MACPowerUp
                  0x003b94                  _SetCLKOUT
                  0x003baa                  _GetCLKOUT
 .text            0x003bc4        0xafe build/default/production/_ext/1472/EventTCPIP.o
                  0x003bc4                  _EventTCPIP
                  0x003c5e                  _Return_APPPage_Pointer
                  0x003c66                  _Return_NVMPage_Pointer
                  0x003c6e                  _InitAppConfig
                  0x003e1a                  _SaveAppConfig
                  0x0040d8                  _DisplayIPValue
                  0x00410c                  __AddressError
                  0x004116                  __StackError
                  0x004120                  _TPCIP_Voyager_Init_Task
                  0x0042dc                  _TPCIP_Voyager_Task
                  0x004406                  _ProcessModBus_TCPIP
                  0x004448                  _Process_ModbusTCP_ReadFunction
                  0x0045a6                  _Process_ModbusTCP_WriteFunction
 .text            0x0046c2        0x9d8 build/default/production/_ext/1472/OMBLTC2439_Inputs.o
                  0x0046c2                  _EventSelfCalibLTC2439AIN
                  0x004720                  _EventUpdate_PT100channel
                  0x0047e8                  _EventUpdate_NTCchannel
                  0x004888                  _EventUpdate_TCCO2channel
                  0x004926                  _EventUpdate_IRCO2channel
                  0x0049f6                  _EventUpdate_Battchannel
                  0x004aa6                  _EventUpdate_Opt2channel
                  0x004b46                  _EventUpdate_RHchannel
                  0x004c10                  _EventUpdate_Opt3channel
                  0x004cc0                  _GetValue_Slope
                  0x004d1c                  _GetValue_2points
                  0x004e02                  _GetTCCO2
                  0x004e54                  _GetIRCO2
                  0x004e80                  _GetNTCtemp
                  0x004ea4                  _GetPT100temp
                  0x004ec8                  _GetO2
                  0x004f1a                  _GetRH
                  0x004f46                  _NTCLookUpTable
                  0x005008                  _PT100LookUpTable
 .text            0x00509a        0x91a build/default/production/_ext/1472/TempControl.o
                  0x00509a                  _EventUpdateTempPIControl
                  0x0050dc                  _Run_PID_Heater
                  0x0051fe                  _Stop_PID_Heater
                  0x005220                  _Stop_Door_Heater
                  0x00523a                  _SetCOBias
                  0x005248                  _Ret_T_PIDcalculation
                  0x0055aa                  _TempAlarm_Update
                  0x00563e                  _ClearTempALarm
                  0x005654                  _EventFanDeconOn
                  0x005686                  _EventFanDeconOff
                  0x0056b8                  _EventPumpChamberOn
                  0x0056ea                  _EventPumpChamberOff
                  0x00571c                  _Send_DataToPC
                  0x00574e                  _Event_Control_Enabled
                  0x005770                  _Event_Control_Disabled
                  0x005796                  _EventColdStartUp
                  0x005814                  _RTCEventPumpChamberOn
                  0x005894                  _RTCEventPumpChamberOff
                  0x005948                  _Event_Temp_Supervisory
 .text            0x0059b4        0x7c2 build/default/production/_ext/867694782/DHCP.o
                  0x0059b4                  _DHCPInit
                  0x0059f0                  _DHCPDisable
                  0x005a0a                  _DHCPEnable
                  0x005a1e                  _DHCPIsEnabled
                  0x005a36                  _DHCPIsBound
                  0x005a44                  _DHCPStateChanged
                  0x005a62                  _DHCPIsServerDetected
                  0x005a72                  _DHCPTempIPAddr
                  0x005aa8                  _DHCPTask
 .text            0x006176        0x7b6 build/default/production/_ext/1472/OMB_UTI_Comm.o
                  0x006176                  _EventUpdateUTI_Communication
                  0x006184                  _Is_I2C1_FrameData_Valid
                  0x0061b6                  _Process_I2C1_FrameData
                  0x0061d6                  _Process_I2C1_ReadFunction
                  0x0062d2                  _Process_I2C1_WriteFunction
                  0x006344                  _SendException_ReadFunction
                  0x0063ac                  _SendException_WriteFunction
                  0x006414                  _CompileRxBufferToFrame
                  0x006498                  _ReadShakerRegisterFromEEPROM
                  0x0066d4                  _Flush_I2C1FrameBuff
                  0x0066fe                  _Event_Int_I2C_Write_Reg
 .text            0x00692c        0x720 build/default/production/_ext/867694782/Helpers.o
                  0x00692c                  _LFSRSeedRand
                  0x00696c                  _LFSRRand
                  0x0069da                  _GenerateRandomDWORD
                  0x006ad0                  _StringToIPAddress
                  0x006c58                  _uitoa
                  0x006cd6                  _hexatob
                  0x006d4c                  _btohexa_high
                  0x006d74                  _btohexa_low
                  0x006d9a                  _stricmppgm2ram
                  0x006e32                  _swaps
                  0x006e4c                  _swapl
                  0x006eaa                  _CalcIPChecksum
                  0x006f1e                  _strupr
                  0x006f58                  _FormatNetBIOSName
                  0x006fa0                  _strnchr
                  0x006fe6                  _strncpy_m
 .text            0x00704c        0x67c build/default/production/_ext/867694782/UDP.o
                  0x00704c                  _UDPInit
                  0x007066                  _UDPOpenEx
                  0x007142                  _UDPTask
                  0x007262                  _UDPIsOpened
                  0x007284                  _UDPClose
                  0x0072bc                  _UDPSetTxBuffer
                  0x0072ce                  _UDPSetRxBuffer
                  0x0072e0                  _UDPIsPutReady
                  0x007314                  _UDPPut
                  0x007346                  _UDPPutArray
                  0x00737c                  _UDPPutString
                  0x007390                  _UDPFlush
                  0x007456                  _UDPIsGetReady
                  0x007486                  _UDPGet
                  0x0074ba                  _UDPGetArray
                  0x007502                  _UDPDiscard
                  0x00751c                  _UDPProcess
 .text            0x0076c8        0x63e build/default/production/_ext/1472/General.o
                  0x0076c8                  _stringCopy
                  0x0076ec                  _stringCat
                  0x00771c                  _WordToString
                  0x00780e                  _FloatToString_4Pt2Dec
                  0x007a36                  _Delay_uS
                  0x007a66                  _CalcCRC16
                  0x007ad0                  _strLen
                  0x007af0                  _Power
                  0x007b2c                  _StringToWord
                  0x007b88                  _StringToLONG
                  0x007bf2                  _SortWordBufferAsc
 .text            0x007d06        0x4b8 build/default/production/_ext/1472/CO2_Control.o
                  0x007d06                  _EventUpdateCO2PIControl
                  0x007d46                  _Run_PID_CO2Injection
                  0x007d50                  _Stop_PID_CO2Injection
                  0x007d5a                  _Ret_CO2_PIDcalculation
                  0x008034                  _CO2Alarm_Update
                  0x00807e                  _ClearCO2ALarm
                  0x008094                  _Update_CO2Injection_PWM
                  0x0080e6                  _CO2_SolenoidSystem
                  0x00814e                  _Event_CO2_MainSol_On
                  0x00816a                  _Event_CO2_MainSol_Off
                  0x008186                  _Event_CO2_BackSol_On
                  0x0081a2                  _Event_CO2_BackSol_Off
 .text            0x0081be        0x476 build/default/production/_ext/1472/OMB_AnalogOutput.o
                  0x0081be                  _CalibrateAnalogOut
                  0x0084b2                  _InitializeAnalogOut
                  0x0084c2                  _UpdateDAC
                  0x008554                  _CompileDAC_Data
                  0x0085ea                  _TxSPIData_DAC
                  0x008616                  _Update_RawDAC
 .text            0x008634        0x42c build/default/production/_ext/1472/RH_Control.o
                  0x008634                  _EventUpdateRHPIControl
                  0x00865a                  _Ret_RH_PIDcalculation
                  0x008904                  _RHAlarm_Update
                  0x00894a                  _ClearRHALarm
                  0x008960                  _Event_RH_Control
                  0x00899e                  _Event_RH_Control_Off
                  0x0089b8                  _Event_RH_Control_Enabled
                  0x0089ca                  _Event_RH_Control_Disabled
                  0x0089de                  _RH_ControlWithNTC
                  0x0089f6                  _RH_ControlWithRHSensor
                  0x008a2a                  _EventSolenoidRHControlOff
                  0x008a36                  _EventSolenoidRHControlOn
 .text            0x008a60        0x3e6 build/default/production/_ext/867694782/ARP.o
                  0x008a60                  _ARPSendPkt
                  0x008b12                  _ARPInit
                  0x008b58                  _ARPProcess
                  0x008c54                  _ARPResolve
                  0x008d20                  _ARPIsResolved
                  0x008e1a                  _SwapARPPacket
 .text            0x008e46        0x3b2 build/default/production/_ext/1472/O2_Control.o
                  0x008e46                  _EventUpdateO2PIControl
                  0x008e8a                  _Run_PID_O2Injection
                  0x008e94                  _Stop_PID_O2Injection
                  0x008e9e                  _Ret_O2_PIDcalculation
                  0x009072                  _O2Alarm_Update
                  0x0090b8                  _ClearO2Alarm
                  0x0090ce                  _Update_O2Injection_PWM
                  0x009120                  _O2_SolenoidSystem
                  0x009188                  _Event_O2_MainSol_On
                  0x0091a4                  _Event_O2_MainSol_Off
                  0x0091c0                  _Event_O2_BackSol_On
                  0x0091dc                  _Event_O2_BackSol_Off
 .text            0x0091f8        0x396 build/default/production/_ext/1472/OMB_Mode.o
                  0x0091f8                  _UpdateSystemSensor
                  0x009264                  _UpdateSystemMode
                  0x0092ac                  _Set_FactoryMode
                  0x0092cc                  _Set_NormalMode
                  0x009348                  _Set_DeconMode
                  0x0093b8                  _Set_DeconStopMode
                  0x0093ce                  _UpdateOutput
                  0x0093fa                  _Output_Manual_Control
                  0x00956c                  _EventEMLock
 .text            0x00958e        0x38c build/default/production/_ext/1472/OMB_Output.o
                  0x00958e                  _Exp_FailSafe_Relay_On
                  0x0095a0                  _Exp_FailSafe_Relay_Off
                  0x0095b2                  _FailSafe_Relay_On
                  0x0095c4                  _FailSafe_Relay_Off
                  0x0095d6                  _Set_Analog_Mux
                  0x00963e                  _Enable_AnalogMux
                  0x009650                  _Disable_AnalogMux
                  0x009662                  _TurnOffAllOutputs
                  0x0096e6                  _SetOutPut
 .text            0x00991a        0x360 build/default/production/_ext/1472/EventScheduler.o
                  0x00991a                  _RunForeGroundEvents
                  0x00998e                  _RunBackGroundEvents
                  0x009a28                  _SetMainEventPeriod
                  0x009a62                  _SetMainEventRunningTimer
                  0x009a9c                  _SetMainEventENDIS
                  0x009ad6                  _SetMainEventType
                  0x009b10                  _RetMainEventType
                  0x009b4c                  _RetMainEventENDIS
                  0x009b88                  _StartONCEMainEvent
                  0x009bde                  _SetIntDrivenEventENDIS
                  0x009c18                  _SetIntDrivenEventFlag
                  0x009c52                  _ReturnFlag
                  0x009c64                  _SetFlag

.dinit            0x009c7a        0x352
 .dinit           0x009c7a        0x352 data_init

.text             0x009fcc       0x2672
 .text            0x009fcc        0x33a build/default/production/_ext/1472/O2_RS485.o
                  0x009fcc                  _Initialize_O2RS485
                  0x009fde                  _Stop_O2RS485
                  0x009fea                  _Calibrate_O2RS485
                  0x00a004                  _EventUpdateRS485O2Sensor
                  0x00a03c                  _EventUpdateRS485O2Sensor_RxUpdate
                  0x00a09a                  _EventWriteRS485O2Sensor
                  0x00a11e                  _RS485O2SensorCmd
                  0x00a160                  _RS485_ProcessFrame
                  0x00a1b6                  _RS485O2_ProcessReadFunc
                  0x00a248                  _RS485O2_ProcessWriteFunc
                  0x00a2b8                  _returnO2RS485RegIndex
 .text            0x00a306        0x304 build/default/production/_ext/1472/OMB_DigitalInputs.o
                  0x00a306                  _ReturnRefrigerant_PSW
                  0x00a312                  _ReturnO2N2Tank_1_PSW
                  0x00a320                  _ReturnO2N2Tank_2_PSW
                  0x00a330                  _ReturnDoor_SW
                  0x00a340                  _ReturnThermostat_SW
                  0x00a350                  _ReturnSMPSFailure_Detection
                  0x00a35c                  _ReturnCO2Tank_1_PSW
                  0x00a36c                  _ReturnCO2Tank_2_PSW
                  0x00a37c                  _ReturnWaterLevelSensor
                  0x00a38c                  _EventUpdateDigitalSensors
                  0x00a506                  _EventDoor
                  0x00a5ac                  _EventThermostat
                  0x00a5e2                  _EventWaterLevel
 .text            0x00a60a        0x2be build/default/production/_ext/1472/RTC_S35390.o
                  0x00a60a                  _s35390_Read
                  0x00a676                  _s35390_Write
                  0x00a6ce                  _s35390_Initialize
                  0x00a706                  _S35390_ConvertRTData
                  0x00a7b6                  _CompileStringTo_S35390_RT1Data
                  0x00a7e6                  _s35390_GetDate_And_Time
                  0x00a842                  _s35390_SetTime
                  0x00a874                  _s35390_SetDate
                  0x00a8aa                  _s35390_FlushBuffer
 .text            0x00a8c8        0x2ba build/default/production/_ext/1472/p24FJ256DA210_OCx.o
                  0x00a8c8                  _Initialize_OC_Module
                  0x00aab2                  _Update_OC1_PWM
                  0x00aacc                  _Update_OC2_PWM
                  0x00aae6                  _Update_Zone1_OC3_PWM
                  0x00ab00                  _Update_Zone2_OC4_PWM
                  0x00ab1a                  _Update_Zone3_OC5_PWM
                  0x00ab34                  _Update_Zone4_OC6_PWM
                  0x00ab4e                  _Update_Zone5_OC7_PWM
                  0x00ab68                  _Update_Zone6_OC8_PWM
 .text            0x00ab82        0x238 build/default/production/_ext/867694782/StackTsk.o
                  0x00ab82                  _StackInit
                  0x00abb4                  _StackTask
                  0x00adb2                  _StackApplications
 .text            0x00adba        0x1ee build/default/production/_ext/1472/p24FJ256DA210_I2C3.o
                  0x00adba                  _Initialize_I2C3_Module
                  0x00ade6                  _I2C3_startBit
                  0x00adee                  _I2C3_Idle_Bus
                  0x00ae00                  _I2C3_REstartBit
                  0x00ae10                  _I2C3_stopBit
                  0x00ae4e                  _I2C3_Is_AckBit
                  0x00ae6a                  _I2C3_Send_Ack
                  0x00ae7e                  _I2C3_Send_NAck
                  0x00aeba                  _I2C3_MasterReceive_Enable
                  0x00aec2                  _I2C3_Send_Byte
                  0x00aef8                  _I2C3_Receive_Byte
                  0x00af30                  _I2C23Master_Poll_Slave
                  0x00af56                  _Flush_I2C3RxBuffer
                  0x00af78                  _Return_I2C3RxBuffer
                  0x00af80                  __Interrupt85
                  0x00af90                  _I2C3_Open
                  0x00af9c                  _I2C3_Close
 .text            0x00afa8        0x1e2 build/default/production/_ext/1472/Flash.o
                  0x00afa8                  _FLASH_SendData
                  0x00afc8                  _FLASH_SendStatusCmmd
                  0x00afda                  _FLASH_SectorErase
                  0x00b026                  _FLASH_ChipErase
                  0x00b046                  _FLASH_ReadStatusReg
                  0x00b07a                  _FLASH_WriteStatusReg
                  0x00b09c                  _FLASH_Read
                  0x00b116                  _FLASH_ByteProgram
                  0x00b15a                  _FLASH_MultiByteProgram
 .text            0x00b18a        0x1da build/default/production/_ext/1472/main.o
                  0x00b18a                  _main
                  0x00b34c                  _(unsigned short,...)(long double, int14_t)
                  0x00b358                  ___UserGDE
 .text            0x00b364        0x1c6 build/default/production/_ext/1472/p24FJ256DA210_UART2.o
                  0x00b364                  _Initialize_UART2_Module
                  0x00b3bc                  _U5_Chip_TxEnable
                  0x00b3ca                  _U5_Chip_RxEnable
                  0x00b3d8                  _UART2_TxByte
                  0x00b3fc                  _UART2_TxString
                  0x00b42e                  _UART2_TxData
                  0x00b46a                  _UART2_PollByte
                  0x00b49c                  __U2RXInterrupt
                  0x00b4dc                  _Flush_U2RxBuffer
                  0x00b4fe                  _Return_U2RxBuffer
                  0x00b506                  _Return_U2RxBufferCounter
                  0x00b510                  _Delay_UART2
 .text            0x00b52a        0x1a0 build/default/production/_ext/1472/EventRTC.o
                  0x00b52a                  _EventRTC
                  0x00b58a                  _EventIntRTC
                  0x00b5f0                  _StartTimerRTC
                  0x00b654                  _StopTimerRTC
                  0x00b68a                  _ReturnTimerRTCENDIS
 .text            0x00b6ca        0x198 build/default/production/_ext/867694782/IP.o
                  0x00b6ca                  _IPGetHeader
                  0x00b78e                  _IPPutHeader
                  0x00b826                  _IPSetRxBuffer
 .text            0x00b862        0x196 build/default/production/_ext/1472/p24FJ256DA210_SPI1.o
                  0x00b862                  _Initialize_SPI1_Module
                  0x00b892                  _SPI1_TxByte
                  0x00b8be                  _SPI1_Tx_Only
                  0x00b8ea                  _SPI1_RxByte
                  0x00b912                  __SPI1Interrupt
                  0x00b948                  _Return_SPI1_RxBuffer
                  0x00b950                  _Return_SPI1_RxBuffer_Cnt
                  0x00b95a                  _Flush_SPI1_RxBuffer
                  0x00b97c                  ___Enable_SPI1Master_Interrupt
                  0x00b984                  ___Disable_SPI1Master_Interrupt
                  0x00b98c                  _Set_CS_LTC2439
                  0x00b998                  _Reset_CS_LTC2439
                  0x00b9a6                  _Restart_SPI1
                  0x00b9bc                  _SetEdgeActiveToIdle
                  0x00b9da                  _SetEdgeIdleToActive
 .text            0x00b9f8        0x16e build/default/production/_ext/1472/CO2_RS485.o
                  0x00b9f8                  _EventUpdateRS485CO2Sensor
                  0x00ba4e                  _EventRS485CO2Sensor_RxUpdate
 .text            0x00bb66        0x164 build/default/production/_ext/1472/p24FJ256DA210_I2C1.o
                  0x00bb66                  _Initialize_I2C1_Module
                  0x00bb84                  ___Disable_I2C1Slave_Interrupt
                  0x00bb8c                  ___Enable_I2C1Slave_Interrupt
                  0x00bb94                  ___Set_I2C1Slave_Interrupt
                  0x00bb9c                  ___Clear_I2C1Slave_Interrupt
                  0x00bba4                  _Tx_I2C1SlaveData
                  0x00bbde                  __SI2C1Interrupt
                  0x00bc84                  _ReturnI2C1_RxDataBuffer
                  0x00bc8c                  _ReturnI2C1_TxBuffer
                  0x00bc94                  _ReturnCounter_I2C1RxBuffer
                  0x00bc9e                  _ReturnCounter_I21TxBuffer
                  0x00bca8                  _Flush_I2C1RxBuffer
 .text            0x00bcca        0x158 build/default/production/_ext/1472/p24FJ256DA210_UART1.o
                  0x00bcca                  _Initialize_UART1_Module
                  0x00bcfa                  _U4_Chip_TxEnable
                  0x00bd02                  _U4_Chip_RxEnable
                  0x00bd0a                  _UART1_TxByte
                  0x00bd2e                  _UART1_TxString
                  0x00bd62                  _UART1_TxData
                  0x00bd9c                  __U1RXInterrupt
                  0x00bdd4                  _Flush_U1RxBuffer
                  0x00bdf6                  _Return_U1RxBuffer
                  0x00bdfe                  _Return_U1RxBufferCounter
                  0x00be08                  _Delay_UART1
 .text            0x00be22        0x136 build/default/production/_ext/867694782/Announce.o
                  0x00be22                  _AnnounceIP
                  0x00be92                  _DiscoveryTask
 .text            0x00bf58        0x120 build/default/production/_ext/1472/EEPROM_24AA1025.o
                  0x00bf58                  _EEPROM_Read
                  0x00bfd8                  _EEPROM_SingleWrite
                  0x00c01a                  _EEPROM_MultiWrite
                  0x00c05e                  _EEPROM_AckPoll
 .text            0x00c078        0x118 build/default/production/_ext/867694782/Tick.o
                  0x00c078                  _TickInit
                  0x00c0f8                  _TickGet
                  0x00c104                  _TickGetDiv256
                  0x00c12c                  _TickGetDiv64K
                  0x00c154                  _TickConvertToMilliseconds
                  0x00c178                  __T2Interrupt
 .text            0x00c190        0x114 build/default/production/_ext/1472/LTC2439.o
                  0x00c190                  _Read_SingleEndedLTC2439
                  0x00c210                  _Parse_LTC2439Data
                  0x00c26e                  _Test_EOC
 .text            0x00c2a4         0xf2 build/default/production/_ext/1472/AlarmContactRelay.o
                  0x00c2a4                  _EventUpdateAlarmContactRelay
 .text            0x00c396         0x9e build/default/production/_ext/1472/p24FJ256DA210_Timer1.o
                  0x00c396                  _Timer1_Start
                  0x00c39e                  _Timer1_Stop
                  0x00c3a6                  _Initialize_Timer1_Module
                  0x00c3d6                  __T1Interrupt
                  0x00c41c                  ___Enable_Timer1_Interrupt
                  0x00c424                  ___Disable_Timer1_Interrupt
                  0x00c42c                  _retCounter1
 .text            0x00c434         0x84 build/default/production/_ext/1472/p24FJ256DA210_Timer3.o
                  0x00c434                  _Timer3_Start
                  0x00c43c                  _Timer3_Stop
                  0x00c444                  _Initialize_Timer3_Module
                  0x00c474                  __T3Interrupt
                  0x00c496                  _Initialize_Timer4_Module
 .text            0x00c4b8         0x6c build/default/production/_ext/867694782/ICMP.o
                  0x00c4b8                  _ICMPProcess
 .text            0x00c524         0x56 build/default/production/_ext/1472/Event_UV.o
                  0x00c524                  _EventUVRunTime
                  0x00c530                  _EventUVLamp
 .text            0x00c57a         0x56 build/default/production/_ext/867694782/Delay.o
                  0x00c57a                  _DelayMs
                  0x00c5a4                  _Delay10us
 .text            0x00c5d0         0x44 build/default/production/_ext/1472/p24FJ256DA210_ICN.o
                  0x00c5d0                  _Initialize_ICN_Module
                  0x00c5ec                  __CNInterrupt
                  0x00c604                  ___Enable_CN_Interrupt
                  0x00c60c                  ___Disable_CN_Interrupt
 .text            0x00c614          0xc build/default/production/_ext/1472/EventBuzzer.o
                  0x00c614                  _EventUpdateBuzzer
 .text            0x00c620          0xa build/default/production/_ext/1472/AC_Hz.o
                  0x00c620                  _EventReadACFreq
 .text            0x00c62a          0xa build/default/production/_ext/1472/FailSafeRelay.o
                  0x00c62a                  _EventUpdateFailSafeRelay
 .text            0x00c634          0xa build/default/production/_ext/1472/USB.o
                  0x00c634                  _EventUSB
